ARM Linker, 5.03 [Build 76] [MDK-ARM Standard]

==============================================================================

Section Cross References

    startup_stm32l1xx_hd.o(RESET) refers to startup_stm32l1xx_hd.o(STACK) for __initial_sp
    startup_stm32l1xx_hd.o(RESET) refers to startup_stm32l1xx_hd.o(.text) for Reset_Handler
    startup_stm32l1xx_hd.o(RESET) refers to stm32l1xx_it.o(i.NMI_Handler) for NMI_Handler
    startup_stm32l1xx_hd.o(RESET) refers to stm32l1xx_it.o(i.HardFault_Handler) for HardFault_Handler
    startup_stm32l1xx_hd.o(RESET) refers to stm32l1xx_it.o(i.MemManage_Handler) for MemManage_Handler
    startup_stm32l1xx_hd.o(RESET) refers to stm32l1xx_it.o(i.BusFault_Handler) for BusFault_Handler
    startup_stm32l1xx_hd.o(RESET) refers to stm32l1xx_it.o(i.UsageFault_Handler) for UsageFault_Handler
    startup_stm32l1xx_hd.o(RESET) refers to stm32l1xx_it.o(i.SVC_Handler) for SVC_Handler
    startup_stm32l1xx_hd.o(RESET) refers to stm32l1xx_it.o(i.DebugMon_Handler) for DebugMon_Handler
    startup_stm32l1xx_hd.o(RESET) refers to stm32l1xx_it.o(i.PendSV_Handler) for PendSV_Handler
    startup_stm32l1xx_hd.o(RESET) refers to stm32l1xx_it.o(i.SysTick_Handler) for SysTick_Handler
    startup_stm32l1xx_hd.o(RESET) refers to stm32l1xx_it.o(i.EXTI0_IRQHandler) for EXTI0_IRQHandler
    startup_stm32l1xx_hd.o(RESET) refers to stm32l1xx_it.o(i.TIM2_IRQHandler) for TIM2_IRQHandler
    startup_stm32l1xx_hd.o(RESET) refers to porttimer.o(i.TIM3_IRQHandler) for TIM3_IRQHandler
    startup_stm32l1xx_hd.o(RESET) refers to stm32l1xx_it.o(i.USART1_IRQHandler) for USART1_IRQHandler
    startup_stm32l1xx_hd.o(RESET) refers to portserial.o(i.USART3_IRQHandler) for USART3_IRQHandler
    startup_stm32l1xx_hd.o(RESET) refers to stm32l1xx_it.o(i.EXTI15_10_IRQHandler) for EXTI15_10_IRQHandler
    startup_stm32l1xx_hd.o(.text) refers to system_stm32l1xx.o(i.SystemInit) for SystemInit
    startup_stm32l1xx_hd.o(.text) refers to entry.o(.ARM.Collect$$$$00000000) for __main
    system_stm32l1xx.o(i.SystemCoreClockUpdate) refers to system_stm32l1xx.o(.data) for SystemCoreClock
    system_stm32l1xx.o(i.SystemInit) refers to system_stm32l1xx.o(i.SetSysClock) for SetSysClock
    stm32l1xx_usart.o(i.USART_DeInit) refers to stm32l1xx_rcc.o(i.RCC_APB2PeriphResetCmd) for RCC_APB2PeriphResetCmd
    stm32l1xx_usart.o(i.USART_DeInit) refers to stm32l1xx_rcc.o(i.RCC_APB1PeriphResetCmd) for RCC_APB1PeriphResetCmd
    stm32l1xx_usart.o(i.USART_Init) refers to stm32l1xx_rcc.o(i.RCC_GetClocksFreq) for RCC_GetClocksFreq
    stm32l1xx_adc.o(i.ADC_DeInit) refers to stm32l1xx_rcc.o(i.RCC_APB2PeriphResetCmd) for RCC_APB2PeriphResetCmd
    stm32l1xx_gpio.o(i.GPIO_DeInit) refers to stm32l1xx_rcc.o(i.RCC_AHBPeriphResetCmd) for RCC_AHBPeriphResetCmd
    stm32l1xx_lcd.o(i.LCD_DeInit) refers to stm32l1xx_rcc.o(i.RCC_APB1PeriphResetCmd) for RCC_APB1PeriphResetCmd
    stm32l1xx_lcd.o(i.LCD_Init) refers to stm32l1xx_lcd.o(i.LCD_WaitForSynchro) for LCD_WaitForSynchro
    stm32l1xx_pwr.o(i.PWR_DeInit) refers to stm32l1xx_rcc.o(i.RCC_APB1PeriphResetCmd) for RCC_APB1PeriphResetCmd
    stm32l1xx_rcc.o(i.RCC_GetClocksFreq) refers to stm32l1xx_rcc.o(.data) for PLLMulTable
    stm32l1xx_rcc.o(i.RCC_WaitForHSEStartUp) refers to stm32l1xx_rcc.o(i.RCC_GetFlagStatus) for RCC_GetFlagStatus
    stm32l1xx_rtc.o(i.RTC_CoarseCalibCmd) refers to stm32l1xx_rtc.o(i.RTC_EnterInitMode) for RTC_EnterInitMode
    stm32l1xx_rtc.o(i.RTC_CoarseCalibCmd) refers to stm32l1xx_rtc.o(i.RTC_ExitInitMode) for RTC_ExitInitMode
    stm32l1xx_rtc.o(i.RTC_CoarseCalibConfig) refers to stm32l1xx_rtc.o(i.RTC_EnterInitMode) for RTC_EnterInitMode
    stm32l1xx_rtc.o(i.RTC_CoarseCalibConfig) refers to stm32l1xx_rtc.o(i.RTC_ExitInitMode) for RTC_ExitInitMode
    stm32l1xx_rtc.o(i.RTC_DeInit) refers to stm32l1xx_rtc.o(i.RTC_EnterInitMode) for RTC_EnterInitMode
    stm32l1xx_rtc.o(i.RTC_DeInit) refers to stm32l1xx_rtc.o(i.RTC_WaitForSynchro) for RTC_WaitForSynchro
    stm32l1xx_rtc.o(i.RTC_GetAlarm) refers to stm32l1xx_rtc.o(i.RTC_Bcd2ToByte) for RTC_Bcd2ToByte
    stm32l1xx_rtc.o(i.RTC_GetDate) refers to stm32l1xx_rtc.o(i.RTC_Bcd2ToByte) for RTC_Bcd2ToByte
    stm32l1xx_rtc.o(i.RTC_GetTime) refers to stm32l1xx_rtc.o(i.RTC_Bcd2ToByte) for RTC_Bcd2ToByte
    stm32l1xx_rtc.o(i.RTC_GetTimeStamp) refers to stm32l1xx_rtc.o(i.RTC_Bcd2ToByte) for RTC_Bcd2ToByte
    stm32l1xx_rtc.o(i.RTC_Init) refers to stm32l1xx_rtc.o(i.RTC_EnterInitMode) for RTC_EnterInitMode
    stm32l1xx_rtc.o(i.RTC_Init) refers to stm32l1xx_rtc.o(i.RTC_ExitInitMode) for RTC_ExitInitMode
    stm32l1xx_rtc.o(i.RTC_RefClockCmd) refers to stm32l1xx_rtc.o(i.RTC_EnterInitMode) for RTC_EnterInitMode
    stm32l1xx_rtc.o(i.RTC_RefClockCmd) refers to stm32l1xx_rtc.o(i.RTC_ExitInitMode) for RTC_ExitInitMode
    stm32l1xx_rtc.o(i.RTC_SetAlarm) refers to stm32l1xx_rtc.o(i.RTC_Bcd2ToByte) for RTC_Bcd2ToByte
    stm32l1xx_rtc.o(i.RTC_SetAlarm) refers to stm32l1xx_rtc.o(i.RTC_ByteToBcd2) for RTC_ByteToBcd2
    stm32l1xx_rtc.o(i.RTC_SetDate) refers to stm32l1xx_rtc.o(i.RTC_Bcd2ToByte) for RTC_Bcd2ToByte
    stm32l1xx_rtc.o(i.RTC_SetDate) refers to stm32l1xx_rtc.o(i.RTC_ByteToBcd2) for RTC_ByteToBcd2
    stm32l1xx_rtc.o(i.RTC_SetDate) refers to stm32l1xx_rtc.o(i.RTC_EnterInitMode) for RTC_EnterInitMode
    stm32l1xx_rtc.o(i.RTC_SetDate) refers to stm32l1xx_rtc.o(i.RTC_ExitInitMode) for RTC_ExitInitMode
    stm32l1xx_rtc.o(i.RTC_SetDate) refers to stm32l1xx_rtc.o(i.RTC_WaitForSynchro) for RTC_WaitForSynchro
    stm32l1xx_rtc.o(i.RTC_SetTime) refers to stm32l1xx_rtc.o(i.RTC_Bcd2ToByte) for RTC_Bcd2ToByte
    stm32l1xx_rtc.o(i.RTC_SetTime) refers to stm32l1xx_rtc.o(i.RTC_ByteToBcd2) for RTC_ByteToBcd2
    stm32l1xx_rtc.o(i.RTC_SetTime) refers to stm32l1xx_rtc.o(i.RTC_EnterInitMode) for RTC_EnterInitMode
    stm32l1xx_rtc.o(i.RTC_SetTime) refers to stm32l1xx_rtc.o(i.RTC_ExitInitMode) for RTC_ExitInitMode
    stm32l1xx_rtc.o(i.RTC_SetTime) refers to stm32l1xx_rtc.o(i.RTC_WaitForSynchro) for RTC_WaitForSynchro
    stm32l1xx_rtc.o(i.RTC_SynchroShiftConfig) refers to stm32l1xx_rtc.o(i.RTC_WaitForSynchro) for RTC_WaitForSynchro
    stm32l1xx_tim.o(i.TIM_DeInit) refers to stm32l1xx_rcc.o(i.RCC_APB1PeriphResetCmd) for RCC_APB1PeriphResetCmd
    stm32l1xx_tim.o(i.TIM_DeInit) refers to stm32l1xx_rcc.o(i.RCC_APB2PeriphResetCmd) for RCC_APB2PeriphResetCmd
    stm32l1xx_tim.o(i.TIM_ETRClockMode1Config) refers to stm32l1xx_tim.o(i.TIM_ETRConfig) for TIM_ETRConfig
    stm32l1xx_tim.o(i.TIM_ETRClockMode2Config) refers to stm32l1xx_tim.o(i.TIM_ETRConfig) for TIM_ETRConfig
    stm32l1xx_tim.o(i.TIM_ICInit) refers to stm32l1xx_tim.o(i.TI1_Config) for TI1_Config
    stm32l1xx_tim.o(i.TIM_ICInit) refers to stm32l1xx_tim.o(i.TIM_SetIC1Prescaler) for TIM_SetIC1Prescaler
    stm32l1xx_tim.o(i.TIM_ICInit) refers to stm32l1xx_tim.o(i.TI2_Config) for TI2_Config
    stm32l1xx_tim.o(i.TIM_ICInit) refers to stm32l1xx_tim.o(i.TIM_SetIC2Prescaler) for TIM_SetIC2Prescaler
    stm32l1xx_tim.o(i.TIM_ICInit) refers to stm32l1xx_tim.o(i.TI3_Config) for TI3_Config
    stm32l1xx_tim.o(i.TIM_ICInit) refers to stm32l1xx_tim.o(i.TIM_SetIC3Prescaler) for TIM_SetIC3Prescaler
    stm32l1xx_tim.o(i.TIM_ICInit) refers to stm32l1xx_tim.o(i.TI4_Config) for TI4_Config
    stm32l1xx_tim.o(i.TIM_ICInit) refers to stm32l1xx_tim.o(i.TIM_SetIC4Prescaler) for TIM_SetIC4Prescaler
    stm32l1xx_tim.o(i.TIM_ITRxExternalClockConfig) refers to stm32l1xx_tim.o(i.TIM_SelectInputTrigger) for TIM_SelectInputTrigger
    stm32l1xx_tim.o(i.TIM_PWMIConfig) refers to stm32l1xx_tim.o(i.TI1_Config) for TI1_Config
    stm32l1xx_tim.o(i.TIM_PWMIConfig) refers to stm32l1xx_tim.o(i.TIM_SetIC1Prescaler) for TIM_SetIC1Prescaler
    stm32l1xx_tim.o(i.TIM_PWMIConfig) refers to stm32l1xx_tim.o(i.TI2_Config) for TI2_Config
    stm32l1xx_tim.o(i.TIM_PWMIConfig) refers to stm32l1xx_tim.o(i.TIM_SetIC2Prescaler) for TIM_SetIC2Prescaler
    stm32l1xx_tim.o(i.TIM_TIxExternalClockConfig) refers to stm32l1xx_tim.o(i.TI2_Config) for TI2_Config
    stm32l1xx_tim.o(i.TIM_TIxExternalClockConfig) refers to stm32l1xx_tim.o(i.TI1_Config) for TI1_Config
    stm32l1xx_tim.o(i.TIM_TIxExternalClockConfig) refers to stm32l1xx_tim.o(i.TIM_SelectInputTrigger) for TIM_SelectInputTrigger
    stm32l1xx_syscfg.o(i.SYSCFG_DeInit) refers to stm32l1xx_rcc.o(i.RCC_APB2PeriphResetCmd) for RCC_APB2PeriphResetCmd
    stm32l1xx_spi.o(i.I2S_Init) refers to stm32l1xx_rcc.o(i.RCC_GetClocksFreq) for RCC_GetClocksFreq
    stm32l1xx_spi.o(i.SPI_I2S_DeInit) refers to stm32l1xx_rcc.o(i.RCC_APB2PeriphResetCmd) for RCC_APB2PeriphResetCmd
    stm32l1xx_spi.o(i.SPI_I2S_DeInit) refers to stm32l1xx_rcc.o(i.RCC_APB1PeriphResetCmd) for RCC_APB1PeriphResetCmd
    stm32l1xx_hal_msp.o(i.HAL_TIM_Base_MspInit) refers to stm32l1xx_hal_cortex.o(i.HAL_NVIC_SetPriority) for HAL_NVIC_SetPriority
    stm32l1xx_hal_msp.o(i.HAL_TIM_Base_MspInit) refers to stm32l1xx_hal_cortex.o(i.HAL_NVIC_EnableIRQ) for HAL_NVIC_EnableIRQ
    stm32l1xx_hal_msp.o(i.HAL_UART_MspDeInit) refers to stm32l1xx_hal_gpio.o(i.HAL_GPIO_DeInit) for HAL_GPIO_DeInit
    stm32l1xx_hal_msp.o(i.HAL_UART_MspInit) refers to stm32l1xx_hal_gpio.o(i.HAL_GPIO_Init) for HAL_GPIO_Init
    stm32l1xx_hal_msp.o(i.HAL_UART_MspInit) refers to stm32l1xx_hal_cortex.o(i.HAL_NVIC_SetPriority) for HAL_NVIC_SetPriority
    stm32l1xx_hal_msp.o(i.HAL_UART_MspInit) refers to stm32l1xx_hal_cortex.o(i.HAL_NVIC_EnableIRQ) for HAL_NVIC_EnableIRQ
    freemodbus.o(i.Button_Poll) refers to freemodbus.o(.data) for ucRegDiscreteBuf
    freemodbus.o(i.LED_Poll) refers to freemodbus.o(.data) for ucRegCoilsBuf
    freemodbus.o(i.Relay_Poll) refers to freemodbus.o(.data) for ucRegCoilsBuf
    freemodbus.o(i.eMBRegCoilsCB) refers to mbutils.o(i.xMBUtilGetBits) for xMBUtilGetBits
    freemodbus.o(i.eMBRegCoilsCB) refers to mbutils.o(i.xMBUtilSetBits) for xMBUtilSetBits
    freemodbus.o(i.eMBRegCoilsCB) refers to port.o(i.xMBOutput) for xMBOutput
    freemodbus.o(i.eMBRegCoilsCB) refers to freemodbus.o(.data) for ucRegCoilsBuf
    freemodbus.o(i.eMBRegDiscreteCB) refers to mbutils.o(i.xMBUtilGetBits) for xMBUtilGetBits
    freemodbus.o(i.eMBRegDiscreteCB) refers to port.o(i.xMBOutput) for xMBOutput
    freemodbus.o(i.eMBRegDiscreteCB) refers to freemodbus.o(.data) for ucRegDiscreteBuf
    freemodbus.o(i.eMBRegHistoryCB) refers to bsp_serialdeal.o(i.HISTORY_DATA_READ) for HISTORY_DATA_READ
    freemodbus.o(i.eMBRegHistoryCB) refers to port.o(i.xMBOutput) for xMBOutput
    freemodbus.o(i.eMBRegHistoryCB) refers to freemodbus.o(.data) for usRegInputStart
    freemodbus.o(i.eMBRegHistoryCB) refers to freemodbus.o(.bss) for usRegInputBuf
    freemodbus.o(i.eMBRegHoldingCB) refers to bsp_serialdeal.o(i.PARAM_DATA_READ) for PARAM_DATA_READ
    freemodbus.o(i.eMBRegHoldingCB) refers to bsp_serialdeal.o(i.PARAM_DATA_WRITE) for PARAM_DATA_WRITE
    freemodbus.o(i.eMBRegHoldingCB) refers to port.o(i.xMBOutput) for xMBOutput
    freemodbus.o(i.eMBRegHoldingCB) refers to freemodbus.o(.data) for usRegHoldingStart
    freemodbus.o(i.eMBRegHoldingCB) refers to freemodbus.o(.bss) for usRegHoldingBuf
    freemodbus.o(i.eMBRegInputCB) refers to bsp_serialdeal.o(i.STORAGE_DATA_READ) for STORAGE_DATA_READ
    freemodbus.o(i.eMBRegInputCB) refers to port.o(i.xMBOutput) for xMBOutput
    freemodbus.o(i.eMBRegInputCB) refers to freemodbus.o(.data) for usRegInputStart
    freemodbus.o(i.eMBRegInputCB) refers to freemodbus.o(.bss) for usRegInputBuf
    freemodbus.o(i.eMBRegRealDataCB) refers to bsp_serialdeal.o(i.REALDATA_DATA_READ) for REALDATA_DATA_READ
    freemodbus.o(i.eMBRegRealDataCB) refers to port.o(i.xMBOutput) for xMBOutput
    freemodbus.o(i.eMBRegRealDataCB) refers to freemodbus.o(.data) for usRegInputStart
    freemodbus.o(i.eMBRegRealDataCB) refers to freemodbus.o(.bss) for usRegInputBuf
    freemodbus.o(i.freemodbus_init) refers to freemodbus.o(i.LED_Config) for LED_Config
    freemodbus.o(i.freemodbus_init) refers to freemodbus.o(i.Button_Config) for Button_Config
    freemodbus.o(i.freemodbus_init) refers to mb.o(i.eMBInit) for eMBInit
    freemodbus.o(i.freemodbus_init) refers to mb.o(i.eMBEnable) for eMBEnable
    freemodbus.o(i.freemodbus_main) refers to mb.o(i.eMBPoll) for eMBPoll
    freemodbus.o(i.freemodbus_main) refers to freemodbus.o(i.LED_Poll) for LED_Poll
    freemodbus.o(i.freemodbus_main) refers to freemodbus.o(i.Button_Poll) for Button_Poll
    freemodbus.o(i.freemodbus_main) refers to freemodbus.o(i.Relay_Poll) for Relay_Poll
    main.o(i.main) refers to bsp_init.o(i.PeripheralInit) for PeripheralInit
    main.o(i.main) refers to bsp_init.o(i.SysInit) for SysInit
    main.o(i.main) refers to freemodbus.o(i.freemodbus_init) for freemodbus_init
    main.o(i.main) refers to bsp_datadeal.o(i.JlySecDeal) for JlySecDeal
    main.o(i.main) refers to freemodbus.o(i.freemodbus_main) for freemodbus_main
    stm32l1xx_it.o(i.EXTI0_IRQHandler) refers to stm32l1xx_exti.o(i.EXTI_GetITStatus) for EXTI_GetITStatus
    stm32l1xx_it.o(i.EXTI0_IRQHandler) refers to stm32l1xx_exti.o(i.EXTI_ClearITPendingBit) for EXTI_ClearITPendingBit
    stm32l1xx_it.o(i.EXTI0_IRQHandler) refers to global.o(.bss) for JlyParam
    stm32l1xx_it.o(i.EXTI15_10_IRQHandler) refers to stm32l1xx_exti.o(i.EXTI_GetITStatus) for EXTI_GetITStatus
    stm32l1xx_it.o(i.EXTI15_10_IRQHandler) refers to bsp_init.o(i.SysClock_ReConfig) for SysClock_ReConfig
    stm32l1xx_it.o(i.EXTI15_10_IRQHandler) refers to printf8.o(i.__0printf$8) for __2printf
    stm32l1xx_it.o(i.EXTI15_10_IRQHandler) refers to stm32l1xx_gpio.o(i.GPIO_ResetBits) for GPIO_ResetBits
    stm32l1xx_it.o(i.EXTI15_10_IRQHandler) refers to stm32l1xx_exti.o(i.EXTI_ClearITPendingBit) for EXTI_ClearITPendingBit
    stm32l1xx_it.o(i.EXTI15_10_IRQHandler) refers to global.o(.bss) for JlyParam
    stm32l1xx_it.o(i.SysTick_Handler) refers to bsp_systick.o(i.TimingDelay_Decrement) for TimingDelay_Decrement
    stm32l1xx_it.o(i.SysTick_Handler) refers to global.o(.data) for SysTickTestCount
    stm32l1xx_it.o(i.TIM2_IRQHandler) refers to stm32l1xx_tim.o(i.TIM_GetITStatus) for TIM_GetITStatus
    stm32l1xx_it.o(i.TIM2_IRQHandler) refers to stm32l1xx_tim.o(i.TIM_ClearITPendingBit) for TIM_ClearITPendingBit
    stm32l1xx_it.o(i.TIM2_IRQHandler) refers to global.o(.bss) for Flag
    stm32l1xx_it.o(i.TIM2_IRQHandler) refers to global.o(.data) for JlySensor
    stm32l1xx_it.o(i.USART1_IRQHandler) refers to stm32l1xx_usart.o(i.USART_GetITStatus) for USART_GetITStatus
    stm32l1xx_it.o(i.USART1_IRQHandler) refers to stm32l1xx_usart.o(i.USART_ReceiveData) for USART_ReceiveData
    stm32l1xx_it.o(i.USART1_IRQHandler) refers to printf8.o(i.__0printf$8) for __2printf
    bsp_init.o(i.FirstScanSysData) refers to bsp_init.o(i.ReadSetFramFlag) for ReadSetFramFlag
    bsp_init.o(i.FirstScanSysData) refers to bsp_i2c.o(i.Fram_Read) for Fram_Read
    bsp_init.o(i.FirstScanSysData) refers to bsp_init.o(i.SetJlyParamData) for SetJlyParamData
    bsp_init.o(i.FirstScanSysData) refers to global.o(.bss) for JlyParam
    bsp_init.o(i.GPIO_ReConfig) refers to stm32l1xx_rcc.o(i.RCC_AHBPeriphClockCmd) for RCC_AHBPeriphClockCmd
    bsp_init.o(i.GPIO_ReConfig) refers to stm32l1xx_gpio.o(i.GPIO_Init) for GPIO_Init
    bsp_init.o(i.General_GPIO_Config) refers to stm32l1xx_rcc.o(i.RCC_AHBPeriphClockCmd) for RCC_AHBPeriphClockCmd
    bsp_init.o(i.General_GPIO_Config) refers to stm32l1xx_gpio.o(i.GPIO_Init) for GPIO_Init
    bsp_init.o(i.General_GPIO_Config) refers to stm32l1xx_gpio.o(i.GPIO_SetBits) for GPIO_SetBits
    bsp_init.o(i.General_GPIO_Config) refers to stm32l1xx_gpio.o(i.GPIO_ResetBits) for GPIO_ResetBits
    bsp_init.o(i.I2C_GPIO_Config) refers to stm32l1xx_rcc.o(i.RCC_AHBPeriphClockCmd) for RCC_AHBPeriphClockCmd
    bsp_init.o(i.I2C_GPIO_Config) refers to stm32l1xx_gpio.o(i.GPIO_Init) for GPIO_Init
    bsp_init.o(i.OffPowerSupply) refers to stm32l1xx_gpio.o(i.GPIO_SetBits) for GPIO_SetBits
    bsp_init.o(i.OffPowerSupply) refers to stm32l1xx_gpio.o(i.GPIO_ResetBits) for GPIO_ResetBits
    bsp_init.o(i.PeripheralInit) refers to bsp_init.o(i.SysClock_Config) for SysClock_Config
    bsp_init.o(i.PeripheralInit) refers to bsp_systick.o(i.SysTick_Init) for SysTick_Init
    bsp_init.o(i.PeripheralInit) refers to bsp_init.o(i.General_GPIO_Config) for General_GPIO_Config
    bsp_init.o(i.PeripheralInit) refers to bsp_init.o(i.I2C_GPIO_Config) for I2C_GPIO_Config
    bsp_init.o(i.PeripheralInit) refers to bsp_exti_key.o(i.KEY_GPIO_Config) for KEY_GPIO_Config
    bsp_init.o(i.PeripheralInit) refers to bsp_exti_key.o(i.EXTI15_10_Config) for EXTI15_10_Config
    bsp_init.o(i.PeripheralInit) refers to bsp_lcd.o(i.LCD_GLASS_Init) for LCD_GLASS_Init
    bsp_init.o(i.PeripheralInit) refers to bsp_usart.o(i.USART1_Config) for USART1_Config
    bsp_init.o(i.PeripheralInit) refers to bsp_lcd.o(i.LCD_GLASS_Clear) for LCD_GLASS_Clear
    bsp_init.o(i.PeripheralInit) refers to bsp_adc.o(i.ADC1_Init) for ADC1_Init
    bsp_init.o(i.PeripheralInit) refers to bsp_spi_flash.o(i.SPI_FLASH_Init) for SPI_FLASH_Init
    bsp_init.o(i.ReadSetFramFlag) refers to bsp_i2c.o(i.Fram_Read) for Fram_Read
    bsp_init.o(i.SetJlyParamData) refers to bsp_i2c.o(i.Fram_Write) for Fram_Write
    bsp_init.o(i.SetJlyParamData) refers to bsp_storagedata.o(i.WriteU32Pointer) for WriteU32Pointer
    bsp_init.o(i.SetJlyParamData) refers to bsp_class.o(i.Change3BytesTimeToLong) for Change3BytesTimeToLong
    bsp_init.o(i.SetJlyParamData) refers to bsp_class.o(i.GetRecIntervalTime) for GetRecIntervalTime
    bsp_init.o(i.SetJlyParamData) refers to global.o(.bss) for Queue
    bsp_init.o(i.SysClock_Config) refers to stm32l1xx_rcc.o(i.RCC_GetSYSCLKSource) for RCC_GetSYSCLKSource
    bsp_init.o(i.SysClock_Config) refers to stm32l1xx_rcc.o(i.RCC_GetClocksFreq) for RCC_GetClocksFreq
    bsp_init.o(i.SysClock_Config) refers to stm32l1xx_rcc.o(i.RCC_LSEConfig) for RCC_LSEConfig
    bsp_init.o(i.SysClock_Config) refers to stm32l1xx_pwr.o(i.PWR_RTCAccessCmd) for PWR_RTCAccessCmd
    bsp_init.o(i.SysClock_Config) refers to stm32l1xx_rcc.o(i.RCC_LSICmd) for RCC_LSICmd
    bsp_init.o(i.SysClock_Config) refers to stm32l1xx_rcc.o(i.RCC_GetFlagStatus) for RCC_GetFlagStatus
    bsp_init.o(i.SysClock_Config) refers to stm32l1xx_rcc.o(i.RCC_RTCCLKConfig) for RCC_RTCCLKConfig
    bsp_init.o(i.SysClock_Config) refers to stm32l1xx_rcc.o(i.RCC_RTCCLKCmd) for RCC_RTCCLKCmd
    bsp_init.o(i.SysClock_Config) refers to stm32l1xx_rtc.o(i.RTC_WaitForSynchro) for RTC_WaitForSynchro
    bsp_init.o(i.SysClock_Config) refers to global.o(.data) for SYS_CLK
    bsp_init.o(i.SysClock_ReConfig) refers to stm32l1xx_rcc.o(i.RCC_HSEConfig) for RCC_HSEConfig
    bsp_init.o(i.SysClock_ReConfig) refers to stm32l1xx_rcc.o(i.RCC_WaitForHSEStartUp) for RCC_WaitForHSEStartUp
    bsp_init.o(i.SysClock_ReConfig) refers to stm32l1xx_rcc.o(i.RCC_PLLCmd) for RCC_PLLCmd
    bsp_init.o(i.SysClock_ReConfig) refers to stm32l1xx_rcc.o(i.RCC_GetFlagStatus) for RCC_GetFlagStatus
    bsp_init.o(i.SysClock_ReConfig) refers to stm32l1xx_rcc.o(i.RCC_SYSCLKConfig) for RCC_SYSCLKConfig
    bsp_init.o(i.SysClock_ReConfig) refers to stm32l1xx_rcc.o(i.RCC_GetSYSCLKSource) for RCC_GetSYSCLKSource
    bsp_init.o(i.SysClock_ReConfig) refers to stm32l1xx_rcc.o(i.RCC_GetClocksFreq) for RCC_GetClocksFreq
    bsp_init.o(i.SysClock_ReConfig) refers to stm32l1xx_rcc.o(i.RCC_HSICmd) for RCC_HSICmd
    bsp_init.o(i.SysClock_ReConfig) refers to stm32l1xx_dbgmcu.o(i.DBGMCU_Config) for DBGMCU_Config
    bsp_init.o(i.SysClock_ReConfig) refers to stm32l1xx_rcc.o(i.RCC_LSEConfig) for RCC_LSEConfig
    bsp_init.o(i.SysClock_ReConfig) refers to stm32l1xx_pwr.o(i.PWR_RTCAccessCmd) for PWR_RTCAccessCmd
    bsp_init.o(i.SysClock_ReConfig) refers to stm32l1xx_rcc.o(i.RCC_LSICmd) for RCC_LSICmd
    bsp_init.o(i.SysClock_ReConfig) refers to stm32l1xx_rcc.o(i.RCC_RTCCLKConfig) for RCC_RTCCLKConfig
    bsp_init.o(i.SysClock_ReConfig) refers to stm32l1xx_rcc.o(i.RCC_RTCCLKCmd) for RCC_RTCCLKCmd
    bsp_init.o(i.SysClock_ReConfig) refers to stm32l1xx_rtc.o(i.RTC_WaitForSynchro) for RTC_WaitForSynchro
    bsp_init.o(i.SysClock_ReConfig) refers to global.o(.data) for SYS_CLK
    bsp_init.o(i.SysInit) refers to bsp_init.o(i.TestFramIsOrNotOk) for TestFramIsOrNotOk
    bsp_init.o(i.SysInit) refers to bsp_init.o(i.FirstScanSysData) for FirstScanSysData
    bsp_init.o(i.SysInit) refers to bsp_powerdeal.o(i.FirstCheckExternPower) for FirstCheckExternPower
    bsp_init.o(i.SysInit) refers to bsp_lcd.o(i.FisrtPowerOnDisplay) for FisrtPowerOnDisplay
    bsp_init.o(i.SysInit) refers to bsp_lcd.o(i.JudgingChannelNumberDisplay) for JudgingChannelNumberDisplay
    bsp_init.o(i.SysInit) refers to bsp_i2c.o(i.RTC8025_Reset) for RTC8025_Reset
    bsp_init.o(i.SysInit) refers to bsp_timer.o(i.TIM2_Configuration) for TIM2_Configuration
    bsp_init.o(i.SysInit) refers to bsp_alarmdeal.o(i.BellNn) for BellNn
    bsp_init.o(i.SysInit) refers to global.o(.bss) for JlyParam
    bsp_init.o(i.TestFramIsOrNotOk) refers to bsp_init.o(i.ReadSetFramFlag) for ReadSetFramFlag
    bsp_init.o(i.TestFramIsOrNotOk) refers to bsp_i2c.o(i.Fram_Write) for Fram_Write
    bsp_init.o(i.TestFramIsOrNotOk) refers to bsp_i2c.o(i.Fram_Read) for Fram_Read
    bsp_init.o(i.TestFramIsOrNotOk) refers to printf8.o(i.__0printf$8) for __2printf
    bsp_init.o(i.TestFramIsOrNotOk) refers to global.o(.bss) for JlyParam
    bsp_init.o(i.WakeUp_GPIO_Config) refers to stm32l1xx_rcc.o(i.RCC_AHBPeriphClockCmd) for RCC_AHBPeriphClockCmd
    bsp_init.o(i.WakeUp_GPIO_Config) refers to stm32l1xx_gpio.o(i.GPIO_Init) for GPIO_Init
    bsp_init.o(i.WakeUp_GPIO_Config) refers to stm32l1xx_rcc.o(i.RCC_APB2PeriphClockCmd) for RCC_APB2PeriphClockCmd
    bsp_init.o(i.WakeUp_GPIO_Config) refers to stm32l1xx_syscfg.o(i.SYSCFG_EXTILineConfig) for SYSCFG_EXTILineConfig
    bsp_init.o(i.WakeUp_GPIO_Config) refers to stm32l1xx_exti.o(i.EXTI_Init) for EXTI_Init
    bsp_init.o(i.WakeUp_GPIO_Config) refers to misc.o(i.NVIC_Init) for NVIC_Init
    bsp_init.o(i.WriteSetFramFlag) refers to bsp_i2c.o(i.Fram_Write) for Fram_Write
    bsp_systick.o(i.Delay_ms) refers to bsp_systick.o(.data) for TimingDelay
    bsp_systick.o(i.SysTick_Init) refers to system_stm32l1xx.o(.data) for SystemCoreClock
    bsp_systick.o(i.TimingDelay_Decrement) refers to bsp_systick.o(.data) for TimingDelay
    bsp_adc.o(i.ADC1_GPIO_Config) refers to stm32l1xx_rcc.o(i.RCC_AHBPeriphClockCmd) for RCC_AHBPeriphClockCmd
    bsp_adc.o(i.ADC1_GPIO_Config) refers to stm32l1xx_gpio.o(i.GPIO_Init) for GPIO_Init
    bsp_adc.o(i.ADC1_Init) refers to stm32l1xx_rcc.o(i.RCC_HSICmd) for RCC_HSICmd
    bsp_adc.o(i.ADC1_Init) refers to stm32l1xx_rcc.o(i.RCC_GetFlagStatus) for RCC_GetFlagStatus
    bsp_adc.o(i.ADC1_Init) refers to bsp_adc.o(i.ADC1_GPIO_Config) for ADC1_GPIO_Config
    bsp_adc.o(i.ADC1_Init) refers to bsp_adc.o(i.ADC1_Mode_Config) for ADC1_Mode_Config
    bsp_adc.o(i.ADC1_Mode_Config) refers to stm32l1xx_rcc.o(i.RCC_AHBPeriphClockCmd) for RCC_AHBPeriphClockCmd
    bsp_adc.o(i.ADC1_Mode_Config) refers to stm32l1xx_dma.o(i.DMA_DeInit) for DMA_DeInit
    bsp_adc.o(i.ADC1_Mode_Config) refers to stm32l1xx_dma.o(i.DMA_Init) for DMA_Init
    bsp_adc.o(i.ADC1_Mode_Config) refers to stm32l1xx_dma.o(i.DMA_Cmd) for DMA_Cmd
    bsp_adc.o(i.ADC1_Mode_Config) refers to stm32l1xx_adc.o(i.ADC_DeInit) for ADC_DeInit
    bsp_adc.o(i.ADC1_Mode_Config) refers to stm32l1xx_adc.o(i.ADC_StructInit) for ADC_StructInit
    bsp_adc.o(i.ADC1_Mode_Config) refers to stm32l1xx_rcc.o(i.RCC_APB2PeriphClockCmd) for RCC_APB2PeriphClockCmd
    bsp_adc.o(i.ADC1_Mode_Config) refers to stm32l1xx_adc.o(i.ADC_Init) for ADC_Init
    bsp_adc.o(i.ADC1_Mode_Config) refers to stm32l1xx_adc.o(i.ADC_RegularChannelConfig) for ADC_RegularChannelConfig
    bsp_adc.o(i.ADC1_Mode_Config) refers to stm32l1xx_adc.o(i.ADC_DMARequestAfterLastTransferCmd) for ADC_DMARequestAfterLastTransferCmd
    bsp_adc.o(i.ADC1_Mode_Config) refers to stm32l1xx_adc.o(i.ADC_DMACmd) for ADC_DMACmd
    bsp_adc.o(i.ADC1_Mode_Config) refers to stm32l1xx_adc.o(i.ADC_Cmd) for ADC_Cmd
    bsp_adc.o(i.ADC1_Mode_Config) refers to stm32l1xx_adc.o(i.ADC_GetFlagStatus) for ADC_GetFlagStatus
    bsp_adc.o(i.ADC1_Mode_Config) refers to global.o(.bss) for ADC_ConvertedValue
    bsp_exti_key.o(i.EXTI15_10_Config) refers to stm32l1xx_rcc.o(i.RCC_APB2PeriphClockCmd) for RCC_APB2PeriphClockCmd
    bsp_exti_key.o(i.EXTI15_10_Config) refers to stm32l1xx_syscfg.o(i.SYSCFG_EXTILineConfig) for SYSCFG_EXTILineConfig
    bsp_exti_key.o(i.EXTI15_10_Config) refers to stm32l1xx_exti.o(i.EXTI_Init) for EXTI_Init
    bsp_exti_key.o(i.EXTI15_10_Config) refers to misc.o(i.NVIC_Init) for NVIC_Init
    bsp_exti_key.o(i.KEY_GPIO_Config) refers to stm32l1xx_rcc.o(i.RCC_AHBPeriphClockCmd) for RCC_AHBPeriphClockCmd
    bsp_exti_key.o(i.KEY_GPIO_Config) refers to stm32l1xx_gpio.o(i.GPIO_Init) for GPIO_Init
    bsp_exti_key.o(i.KeyDeal) refers to printf8.o(i.__0printf$8) for __2printf
    bsp_exti_key.o(i.KeyDeal) refers to bsp_storagedata.o(i.DownFlash_HisData) for DownFlash_HisData
    bsp_exti_key.o(i.KeyDeal) refers to bsp_rtc.o(i.rtc_deel) for rtc_deel
    bsp_exti_key.o(i.KeyDeal) refers to bsp_storagedata.o(i.SetFlashOverFlow) for SetFlashOverFlow
    bsp_exti_key.o(i.KeyDeal) refers to bsp_storagedata.o(i.WriteU16Pointer) for WriteU16Pointer
    bsp_exti_key.o(i.KeyDeal) refers to bsp_storagedata.o(i.WriteU32Pointer) for WriteU32Pointer
    bsp_exti_key.o(i.KeyDeal) refers to global.o(.bss) for Flag
    bsp_exti_key.o(i.test_Printf) refers to printf8.o(i.__0printf$8) for __2printf
    bsp_exti_key.o(i.test_Printf) refers to global.o(.bss) for Queue
    bsp_lcd.o(i.Convert) refers to bsp_lcd.o(.data) for NumberMap1
    bsp_lcd.o(i.Display_ChannelValue) refers to bsp_lcd.o(i.Lcd_ChannelValue) for Lcd_ChannelValue
    bsp_lcd.o(i.Display_ChannelValue) refers to bsp_alarmdeal.o(i.AlarmDeal) for AlarmDeal
    bsp_lcd.o(i.Display_ChannelValue) refers to global.o(.bss) for Conf
    bsp_lcd.o(i.Display_ChannelValue) refers to global.o(.data) for ChannelForDisplay
    bsp_lcd.o(i.Display_LOW) refers to bsp_lcd.o(i.LCD_GLASS_Clear) for LCD_GLASS_Clear
    bsp_lcd.o(i.Display_LOW) refers to stm32l1xx_lcd.o(i.LCD_GetFlagStatus) for LCD_GetFlagStatus
    bsp_lcd.o(i.Display_LOW) refers to bsp_lcd.o(i.Lcd_Dis2Value) for Lcd_Dis2Value
    bsp_lcd.o(i.Display_LOW) refers to bsp_lcd.o(i.Lcd_Dis3Value) for Lcd_Dis3Value
    bsp_lcd.o(i.Display_LOW) refers to stm32l1xx_lcd.o(i.LCD_UpdateDisplayRequest) for LCD_UpdateDisplayRequest
    bsp_lcd.o(i.Display_Mem) refers to stm32l1xx_lcd.o(i.LCD_GetFlagStatus) for LCD_GetFlagStatus
    bsp_lcd.o(i.Display_Mem) refers to stm32l1xx_lcd.o(i.LCD_UpdateDisplayRequest) for LCD_UpdateDisplayRequest
    bsp_lcd.o(i.Display_Mem) refers to global.o(.bss) for Queue
    bsp_lcd.o(i.Display_NUL) refers to bsp_lcd.o(i.Lcd_Dis2Value) for Lcd_Dis2Value
    bsp_lcd.o(i.Display_NUL) refers to bsp_lcd.o(i.Lcd_Dis3Value) for Lcd_Dis3Value
    bsp_lcd.o(i.Display_NUL) refers to bsp_lcd.o(i.Lcd_Dis4Value) for Lcd_Dis4Value
    bsp_lcd.o(i.Display_SN) refers to stm32l1xx_lcd.o(i.LCD_GetFlagStatus) for LCD_GetFlagStatus
    bsp_lcd.o(i.Display_SN) refers to bsp_lcd.o(i.Lcd_Dis5Value) for Lcd_Dis5Value
    bsp_lcd.o(i.Display_SN) refers to bsp_lcd.o(i.Lcd_Dis6Value) for Lcd_Dis6Value
    bsp_lcd.o(i.Display_SN) refers to bsp_lcd.o(i.Lcd_Dis7Value) for Lcd_Dis7Value
    bsp_lcd.o(i.Display_SN) refers to bsp_lcd.o(i.Lcd_Dis8Value) for Lcd_Dis8Value
    bsp_lcd.o(i.Display_SN) refers to bsp_lcd.o(i.Lcd_Dis9Value) for Lcd_Dis9Value
    bsp_lcd.o(i.Display_SN) refers to bsp_lcd.o(i.Lcd_Dis10Value) for Lcd_Dis10Value
    bsp_lcd.o(i.Display_SN) refers to bsp_lcd.o(i.Lcd_Dis11Value) for Lcd_Dis11Value
    bsp_lcd.o(i.Display_SN) refers to stm32l1xx_lcd.o(i.LCD_UpdateDisplayRequest) for LCD_UpdateDisplayRequest
    bsp_lcd.o(i.Display_SN) refers to global.o(.bss) for Conf
    bsp_lcd.o(i.Display_Signal) refers to stm32l1xx_lcd.o(i.LCD_GetFlagStatus) for LCD_GetFlagStatus
    bsp_lcd.o(i.Display_Signal) refers to stm32l1xx_lcd.o(i.LCD_UpdateDisplayRequest) for LCD_UpdateDisplayRequest
    bsp_lcd.o(i.FisrtPowerOnDisplay) refers to bsp_lcd.o(i.Display_SN) for Display_SN
    bsp_lcd.o(i.FisrtPowerOnDisplay) refers to bsp_lcd.o(i.Display_Mem) for Display_Mem
    bsp_lcd.o(i.FisrtPowerOnDisplay) refers to bsp_rtc.o(i.read_time) for read_time
    bsp_lcd.o(i.FisrtPowerOnDisplay) refers to stm32l1xx_lcd.o(i.LCD_GetFlagStatus) for LCD_GetFlagStatus
    bsp_lcd.o(i.FisrtPowerOnDisplay) refers to bsp_lcd.o(i.displayTIME) for displayTIME
    bsp_lcd.o(i.FisrtPowerOnDisplay) refers to bsp_lcd.o(i.Lcd_Dis2Value) for Lcd_Dis2Value
    bsp_lcd.o(i.FisrtPowerOnDisplay) refers to bsp_lcd.o(i.Lcd_Dis3Value) for Lcd_Dis3Value
    bsp_lcd.o(i.FisrtPowerOnDisplay) refers to bsp_lcd.o(i.Lcd_Dis4Value) for Lcd_Dis4Value
    bsp_lcd.o(i.FisrtPowerOnDisplay) refers to stm32l1xx_lcd.o(i.LCD_UpdateDisplayRequest) for LCD_UpdateDisplayRequest
    bsp_lcd.o(i.FisrtPowerOnDisplay) refers to global.o(.bss) for JlyParam
    bsp_lcd.o(i.JudgingChannelNumberDisplay) refers to stm32l1xx_lcd.o(i.LCD_GetFlagStatus) for LCD_GetFlagStatus
    bsp_lcd.o(i.JudgingChannelNumberDisplay) refers to bsp_lcd.o(i.Display_NUL) for Display_NUL
    bsp_lcd.o(i.JudgingChannelNumberDisplay) refers to stm32l1xx_lcd.o(i.LCD_UpdateDisplayRequest) for LCD_UpdateDisplayRequest
    bsp_lcd.o(i.JudgingChannelNumberDisplay) refers to bsp_lcd.o(i.GetStartChanel) for GetStartChanel
    bsp_lcd.o(i.JudgingChannelNumberDisplay) refers to global.o(.bss) for JlyParam
    bsp_lcd.o(i.JudgingChannelNumberDisplay) refers to global.o(.data) for Started_Channel
    bsp_lcd.o(i.LCD_GLASS_Clear) refers to stm32l1xx_lcd.o(i.LCD_GetFlagStatus) for LCD_GetFlagStatus
    bsp_lcd.o(i.LCD_GLASS_Clear) refers to stm32l1xx_lcd.o(i.LCD_UpdateDisplayRequest) for LCD_UpdateDisplayRequest
    bsp_lcd.o(i.LCD_GLASS_ClearChar) refers to stm32l1xx_lcd.o(i.LCD_GetFlagStatus) for LCD_GetFlagStatus
    bsp_lcd.o(i.LCD_GLASS_ClearChar) refers to stm32l1xx_lcd.o(i.LCD_UpdateDisplayRequest) for LCD_UpdateDisplayRequest
    bsp_lcd.o(i.LCD_GLASS_DisplayChar) refers to stm32l1xx_lcd.o(i.LCD_GetFlagStatus) for LCD_GetFlagStatus
    bsp_lcd.o(i.LCD_GLASS_DisplayChar) refers to bsp_lcd.o(i.LCD_GLASS_WriteChar) for LCD_GLASS_WriteChar
    bsp_lcd.o(i.LCD_GLASS_DisplayChar) refers to stm32l1xx_lcd.o(i.LCD_UpdateDisplayRequest) for LCD_UpdateDisplayRequest
    bsp_lcd.o(i.LCD_GLASS_Init) refers to bsp_lcd.o(i.LCD_GPIOConfig) for LCD_GPIOConfig
    bsp_lcd.o(i.LCD_GLASS_Init) refers to stm32l1xx_lcd.o(i.LCD_StructInit) for LCD_StructInit
    bsp_lcd.o(i.LCD_GLASS_Init) refers to stm32l1xx_rcc.o(i.RCC_APB1PeriphClockCmd) for RCC_APB1PeriphClockCmd
    bsp_lcd.o(i.LCD_GLASS_Init) refers to stm32l1xx_lcd.o(i.LCD_Init) for LCD_Init
    bsp_lcd.o(i.LCD_GLASS_Init) refers to stm32l1xx_lcd.o(i.LCD_PulseOnDurationConfig) for LCD_PulseOnDurationConfig
    bsp_lcd.o(i.LCD_GLASS_Init) refers to stm32l1xx_lcd.o(i.LCD_ContrastConfig) for LCD_ContrastConfig
    bsp_lcd.o(i.LCD_GLASS_Init) refers to stm32l1xx_lcd.o(i.LCD_WaitForSynchro) for LCD_WaitForSynchro
    bsp_lcd.o(i.LCD_GLASS_Init) refers to stm32l1xx_lcd.o(i.LCD_Cmd) for LCD_Cmd
    bsp_lcd.o(i.LCD_GLASS_Init) refers to stm32l1xx_lcd.o(i.LCD_GetFlagStatus) for LCD_GetFlagStatus
    bsp_lcd.o(i.LCD_GLASS_WriteChar) refers to bsp_lcd.o(i.Convert) for Convert
    bsp_lcd.o(i.LCD_GPIOConfig) refers to stm32l1xx_rcc.o(i.RCC_AHBPeriphClockCmd) for RCC_AHBPeriphClockCmd
    bsp_lcd.o(i.LCD_GPIOConfig) refers to stm32l1xx_gpio.o(i.GPIO_PinAFConfig) for GPIO_PinAFConfig
    bsp_lcd.o(i.LCD_GPIOConfig) refers to stm32l1xx_gpio.o(i.GPIO_Init) for GPIO_Init
    bsp_lcd.o(i.LcdTest) refers to bsp_lcd.o(i.LCD_GLASS_Clear) for LCD_GLASS_Clear
    bsp_lcd.o(i.LcdTest) refers to stm32l1xx_lcd.o(i.LCD_GetFlagStatus) for LCD_GetFlagStatus
    bsp_lcd.o(i.LcdTest) refers to stm32l1xx_lcd.o(i.LCD_UpdateDisplayRequest) for LCD_UpdateDisplayRequest
    bsp_lcd.o(i.LcdTest) refers to global.o(.constdata) for lcd_test
    bsp_lcd.o(i.Lcd_ChannelValue) refers to stm32l1xx_lcd.o(i.LCD_GetFlagStatus) for LCD_GetFlagStatus
    bsp_lcd.o(i.Lcd_ChannelValue) refers to bsp_lcd.o(i.Lcd_Dis1Value) for Lcd_Dis1Value
    bsp_lcd.o(i.Lcd_ChannelValue) refers to bsp_lcd.o(i.Lcd_Dis2Value) for Lcd_Dis2Value
    bsp_lcd.o(i.Lcd_ChannelValue) refers to bsp_lcd.o(i.Lcd_Dis3Value) for Lcd_Dis3Value
    bsp_lcd.o(i.Lcd_ChannelValue) refers to bsp_lcd.o(i.Lcd_Dis4Value) for Lcd_Dis4Value
    bsp_lcd.o(i.Lcd_ChannelValue) refers to bsp_lcd.o(i.Display_NUL) for Display_NUL
    bsp_lcd.o(i.Lcd_ChannelValue) refers to bsp_lcd.o(i.displayErr) for displayErr
    bsp_lcd.o(i.Lcd_ChannelValue) refers to cfcmple.o(.text) for __aeabi_cfcmple
    bsp_lcd.o(i.Lcd_ChannelValue) refers to f2d.o(.text) for __aeabi_f2d
    bsp_lcd.o(i.Lcd_ChannelValue) refers to dmul.o(.text) for __aeabi_dmul
    bsp_lcd.o(i.Lcd_ChannelValue) refers to d2f.o(.text) for __aeabi_d2f
    bsp_lcd.o(i.Lcd_ChannelValue) refers to ffixui.o(.text) for __aeabi_f2uiz
    bsp_lcd.o(i.Lcd_ChannelValue) refers to stm32l1xx_lcd.o(i.LCD_UpdateDisplayRequest) for LCD_UpdateDisplayRequest
    bsp_lcd.o(i.Lcd_ChannelValue) refers to global.o(.bss) for Conf
    bsp_lcd.o(i.Lcd_ChannelValue) refers to global.o(.data) for ChannelForDisplay
    bsp_lcd.o(i.displayDAY) refers to bsp_lcd.o(i.Lcd_Dis12Value) for Lcd_Dis12Value
    bsp_lcd.o(i.displayDAY) refers to bsp_lcd.o(i.Lcd_Dis13Value) for Lcd_Dis13Value
    bsp_lcd.o(i.displayDAY) refers to bsp_lcd.o(i.Lcd_Dis14Value) for Lcd_Dis14Value
    bsp_lcd.o(i.displayDAY) refers to bsp_lcd.o(i.Lcd_Dis15Value) for Lcd_Dis15Value
    bsp_lcd.o(i.displayErr) refers to bsp_lcd.o(i.Lcd_Dis2Value) for Lcd_Dis2Value
    bsp_lcd.o(i.displayErr) refers to bsp_lcd.o(i.Lcd_Dis3Value) for Lcd_Dis3Value
    bsp_lcd.o(i.displayErr) refers to bsp_lcd.o(i.Lcd_Dis4Value) for Lcd_Dis4Value
    bsp_lcd.o(i.displayTIME) refers to bsp_lcd.o(i.Lcd_Dis12Value) for Lcd_Dis12Value
    bsp_lcd.o(i.displayTIME) refers to bsp_lcd.o(i.Lcd_Dis13Value) for Lcd_Dis13Value
    bsp_lcd.o(i.displayTIME) refers to bsp_lcd.o(i.Lcd_Dis14Value) for Lcd_Dis14Value
    bsp_lcd.o(i.displayTIME) refers to bsp_lcd.o(i.Lcd_Dis15Value) for Lcd_Dis15Value
    bsp_lcd.o(i.displayYEAR) refers to bsp_lcd.o(i.Lcd_Dis12Value) for Lcd_Dis12Value
    bsp_lcd.o(i.displayYEAR) refers to bsp_lcd.o(i.Lcd_Dis13Value) for Lcd_Dis13Value
    bsp_lcd.o(i.displayYEAR) refers to bsp_lcd.o(i.Lcd_Dis14Value) for Lcd_Dis14Value
    bsp_lcd.o(i.displayYEAR) refers to bsp_lcd.o(i.Lcd_Dis15Value) for Lcd_Dis15Value
    bsp_lcd.o(i.lcd_OFF) refers to stm32l1xx_lcd.o(i.LCD_GetFlagStatus) for LCD_GetFlagStatus
    bsp_lcd.o(i.lcd_OFF) refers to bsp_lcd.o(i.Lcd_Dis1Value) for Lcd_Dis1Value
    bsp_lcd.o(i.lcd_OFF) refers to bsp_lcd.o(i.Lcd_Dis2Value) for Lcd_Dis2Value
    bsp_lcd.o(i.lcd_OFF) refers to bsp_lcd.o(i.Lcd_Dis3Value) for Lcd_Dis3Value
    bsp_lcd.o(i.lcd_OFF) refers to bsp_lcd.o(i.Lcd_Dis4Value) for Lcd_Dis4Value
    bsp_lcd.o(i.lcd_OFF) refers to stm32l1xx_lcd.o(i.LCD_UpdateDisplayRequest) for LCD_UpdateDisplayRequest
    bsp_usart.o(i.NVIC_Configuration) refers to misc.o(i.NVIC_PriorityGroupConfig) for NVIC_PriorityGroupConfig
    bsp_usart.o(i.NVIC_Configuration) refers to misc.o(i.NVIC_Init) for NVIC_Init
    bsp_usart.o(i.USART1_Config) refers to stm32l1xx_rcc.o(i.RCC_AHBPeriphClockCmd) for RCC_AHBPeriphClockCmd
    bsp_usart.o(i.USART1_Config) refers to stm32l1xx_rcc.o(i.RCC_APB2PeriphClockCmd) for RCC_APB2PeriphClockCmd
    bsp_usart.o(i.USART1_Config) refers to stm32l1xx_gpio.o(i.GPIO_PinAFConfig) for GPIO_PinAFConfig
    bsp_usart.o(i.USART1_Config) refers to stm32l1xx_gpio.o(i.GPIO_Init) for GPIO_Init
    bsp_usart.o(i.USART1_Config) refers to stm32l1xx_usart.o(i.USART_Init) for USART_Init
    bsp_usart.o(i.USART1_Config) refers to stm32l1xx_usart.o(i.USART_ITConfig) for USART_ITConfig
    bsp_usart.o(i.USART1_Config) refers to bsp_usart.o(i.NVIC_Configuration) for NVIC_Configuration
    bsp_usart.o(i.USART1_Config) refers to stm32l1xx_usart.o(i.USART_Cmd) for USART_Cmd
    bsp_usart.o(i.fgetc) refers to stm32l1xx_usart.o(i.USART_GetFlagStatus) for USART_GetFlagStatus
    bsp_usart.o(i.fgetc) refers to stm32l1xx_usart.o(i.USART_ReceiveData) for USART_ReceiveData
    bsp_usart.o(i.fputc) refers to stm32l1xx_usart.o(i.USART_SendData) for USART_SendData
    bsp_usart.o(i.fputc) refers to stm32l1xx_usart.o(i.USART_GetFlagStatus) for USART_GetFlagStatus
    global.o(.data) refers to global.o(.constdata) for RESET_ADJUST_CURVE1
    bsp_spi_flash.o(i.SPI_FLASH_BufferRead) refers to stm32l1xx_gpio.o(i.GPIO_ResetBits) for GPIO_ResetBits
    bsp_spi_flash.o(i.SPI_FLASH_BufferRead) refers to bsp_spi_flash.o(i.SPI_FLASH_SendByte) for SPI_FLASH_SendByte
    bsp_spi_flash.o(i.SPI_FLASH_BufferRead) refers to stm32l1xx_gpio.o(i.GPIO_SetBits) for GPIO_SetBits
    bsp_spi_flash.o(i.SPI_FLASH_BufferWrite) refers to bsp_spi_flash.o(i.SPI_FLASH_PageWrite) for SPI_FLASH_PageWrite
    bsp_spi_flash.o(i.SPI_FLASH_BulkErase) refers to bsp_spi_flash.o(i.SPI_FLASH_WriteEnable) for SPI_FLASH_WriteEnable
    bsp_spi_flash.o(i.SPI_FLASH_BulkErase) refers to stm32l1xx_gpio.o(i.GPIO_ResetBits) for GPIO_ResetBits
    bsp_spi_flash.o(i.SPI_FLASH_BulkErase) refers to bsp_spi_flash.o(i.SPI_FLASH_SendByte) for SPI_FLASH_SendByte
    bsp_spi_flash.o(i.SPI_FLASH_BulkErase) refers to stm32l1xx_gpio.o(i.GPIO_SetBits) for GPIO_SetBits
    bsp_spi_flash.o(i.SPI_FLASH_BulkErase) refers to bsp_spi_flash.o(i.SPI_FLASH_WaitForWriteEnd) for SPI_FLASH_WaitForWriteEnd
    bsp_spi_flash.o(i.SPI_FLASH_Init) refers to stm32l1xx_rcc.o(i.RCC_AHBPeriphClockCmd) for RCC_AHBPeriphClockCmd
    bsp_spi_flash.o(i.SPI_FLASH_Init) refers to stm32l1xx_rcc.o(i.RCC_APB2PeriphClockCmd) for RCC_APB2PeriphClockCmd
    bsp_spi_flash.o(i.SPI_FLASH_Init) refers to stm32l1xx_gpio.o(i.GPIO_Init) for GPIO_Init
    bsp_spi_flash.o(i.SPI_FLASH_Init) refers to stm32l1xx_gpio.o(i.GPIO_PinAFConfig) for GPIO_PinAFConfig
    bsp_spi_flash.o(i.SPI_FLASH_Init) refers to stm32l1xx_gpio.o(i.GPIO_SetBits) for GPIO_SetBits
    bsp_spi_flash.o(i.SPI_FLASH_Init) refers to stm32l1xx_spi.o(i.SPI_Init) for SPI_Init
    bsp_spi_flash.o(i.SPI_FLASH_Init) refers to stm32l1xx_spi.o(i.SPI_Cmd) for SPI_Cmd
    bsp_spi_flash.o(i.SPI_FLASH_PageWrite) refers to bsp_spi_flash.o(i.SPI_FLASH_WriteEnable) for SPI_FLASH_WriteEnable
    bsp_spi_flash.o(i.SPI_FLASH_PageWrite) refers to stm32l1xx_gpio.o(i.GPIO_ResetBits) for GPIO_ResetBits
    bsp_spi_flash.o(i.SPI_FLASH_PageWrite) refers to bsp_spi_flash.o(i.SPI_FLASH_SendByte) for SPI_FLASH_SendByte
    bsp_spi_flash.o(i.SPI_FLASH_PageWrite) refers to stm32l1xx_gpio.o(i.GPIO_SetBits) for GPIO_SetBits
    bsp_spi_flash.o(i.SPI_FLASH_PageWrite) refers to bsp_spi_flash.o(i.SPI_FLASH_WaitForWriteEnd) for SPI_FLASH_WaitForWriteEnd
    bsp_spi_flash.o(i.SPI_FLASH_ReadByte) refers to bsp_spi_flash.o(i.SPI_FLASH_SendByte) for SPI_FLASH_SendByte
    bsp_spi_flash.o(i.SPI_FLASH_ReadDeviceID) refers to stm32l1xx_gpio.o(i.GPIO_ResetBits) for GPIO_ResetBits
    bsp_spi_flash.o(i.SPI_FLASH_ReadDeviceID) refers to bsp_spi_flash.o(i.SPI_FLASH_SendByte) for SPI_FLASH_SendByte
    bsp_spi_flash.o(i.SPI_FLASH_ReadDeviceID) refers to stm32l1xx_gpio.o(i.GPIO_SetBits) for GPIO_SetBits
    bsp_spi_flash.o(i.SPI_FLASH_ReadID) refers to stm32l1xx_gpio.o(i.GPIO_ResetBits) for GPIO_ResetBits
    bsp_spi_flash.o(i.SPI_FLASH_ReadID) refers to bsp_spi_flash.o(i.SPI_FLASH_SendByte) for SPI_FLASH_SendByte
    bsp_spi_flash.o(i.SPI_FLASH_ReadID) refers to stm32l1xx_gpio.o(i.GPIO_SetBits) for GPIO_SetBits
    bsp_spi_flash.o(i.SPI_FLASH_SectorErase) refers to bsp_spi_flash.o(i.SPI_FLASH_WriteEnable) for SPI_FLASH_WriteEnable
    bsp_spi_flash.o(i.SPI_FLASH_SectorErase) refers to bsp_spi_flash.o(i.SPI_FLASH_WaitForWriteEnd) for SPI_FLASH_WaitForWriteEnd
    bsp_spi_flash.o(i.SPI_FLASH_SectorErase) refers to stm32l1xx_gpio.o(i.GPIO_ResetBits) for GPIO_ResetBits
    bsp_spi_flash.o(i.SPI_FLASH_SectorErase) refers to bsp_spi_flash.o(i.SPI_FLASH_SendByte) for SPI_FLASH_SendByte
    bsp_spi_flash.o(i.SPI_FLASH_SectorErase) refers to stm32l1xx_gpio.o(i.GPIO_SetBits) for GPIO_SetBits
    bsp_spi_flash.o(i.SPI_FLASH_SendByte) refers to stm32l1xx_spi.o(i.SPI_I2S_GetFlagStatus) for SPI_I2S_GetFlagStatus
    bsp_spi_flash.o(i.SPI_FLASH_SendByte) refers to stm32l1xx_spi.o(i.SPI_I2S_SendData) for SPI_I2S_SendData
    bsp_spi_flash.o(i.SPI_FLASH_SendByte) refers to stm32l1xx_spi.o(i.SPI_I2S_ReceiveData) for SPI_I2S_ReceiveData
    bsp_spi_flash.o(i.SPI_FLASH_SendHalfWord) refers to stm32l1xx_spi.o(i.SPI_I2S_GetFlagStatus) for SPI_I2S_GetFlagStatus
    bsp_spi_flash.o(i.SPI_FLASH_SendHalfWord) refers to stm32l1xx_spi.o(i.SPI_I2S_SendData) for SPI_I2S_SendData
    bsp_spi_flash.o(i.SPI_FLASH_SendHalfWord) refers to stm32l1xx_spi.o(i.SPI_I2S_ReceiveData) for SPI_I2S_ReceiveData
    bsp_spi_flash.o(i.SPI_FLASH_StartReadSequence) refers to stm32l1xx_gpio.o(i.GPIO_ResetBits) for GPIO_ResetBits
    bsp_spi_flash.o(i.SPI_FLASH_StartReadSequence) refers to bsp_spi_flash.o(i.SPI_FLASH_SendByte) for SPI_FLASH_SendByte
    bsp_spi_flash.o(i.SPI_FLASH_Test) refers to bsp_spi_flash.o(i.SPI_FLASH_ReadDeviceID) for SPI_FLASH_ReadDeviceID
    bsp_spi_flash.o(i.SPI_FLASH_Test) refers to bsp_spi_flash.o(i.Delay) for Delay
    bsp_spi_flash.o(i.SPI_FLASH_Test) refers to bsp_spi_flash.o(i.SPI_FLASH_ReadID) for SPI_FLASH_ReadID
    bsp_spi_flash.o(i.SPI_FLASH_Test) refers to printf8.o(i.__0printf$8) for __2printf
    bsp_spi_flash.o(i.SPI_FLASH_Test) refers to bsp_spi_flash.o(i.SPI_FLASH_SectorErase) for SPI_FLASH_SectorErase
    bsp_spi_flash.o(i.SPI_FLASH_Test) refers to bsp_spi_flash.o(i.SPI_FLASH_BufferWrite) for SPI_FLASH_BufferWrite
    bsp_spi_flash.o(i.SPI_FLASH_Test) refers to bsp_spi_flash.o(i.SPI_FLASH_BufferRead) for SPI_FLASH_BufferRead
    bsp_spi_flash.o(i.SPI_FLASH_Test) refers to bsp_spi_flash.o(i.Buffercmp) for Buffercmp
    bsp_spi_flash.o(i.SPI_FLASH_Test) refers to bsp_spi_flash.o(.data) for DeviceID
    bsp_spi_flash.o(i.SPI_FLASH_Test) refers to bsp_spi_flash.o(.bss) for Rx_Buffer
    bsp_spi_flash.o(i.SPI_FLASH_WaitForWriteEnd) refers to stm32l1xx_gpio.o(i.GPIO_ResetBits) for GPIO_ResetBits
    bsp_spi_flash.o(i.SPI_FLASH_WaitForWriteEnd) refers to bsp_spi_flash.o(i.SPI_FLASH_SendByte) for SPI_FLASH_SendByte
    bsp_spi_flash.o(i.SPI_FLASH_WaitForWriteEnd) refers to stm32l1xx_gpio.o(i.GPIO_SetBits) for GPIO_SetBits
    bsp_spi_flash.o(i.SPI_FLASH_WriteEnable) refers to stm32l1xx_gpio.o(i.GPIO_ResetBits) for GPIO_ResetBits
    bsp_spi_flash.o(i.SPI_FLASH_WriteEnable) refers to bsp_spi_flash.o(i.SPI_FLASH_SendByte) for SPI_FLASH_SendByte
    bsp_spi_flash.o(i.SPI_FLASH_WriteEnable) refers to stm32l1xx_gpio.o(i.GPIO_SetBits) for GPIO_SetBits
    bsp_spi_flash.o(i.SPI_Flash_PowerDown) refers to stm32l1xx_gpio.o(i.GPIO_ResetBits) for GPIO_ResetBits
    bsp_spi_flash.o(i.SPI_Flash_PowerDown) refers to bsp_spi_flash.o(i.SPI_FLASH_SendByte) for SPI_FLASH_SendByte
    bsp_spi_flash.o(i.SPI_Flash_PowerDown) refers to stm32l1xx_gpio.o(i.GPIO_SetBits) for GPIO_SetBits
    bsp_spi_flash.o(i.SPI_Flash_WAKEUP) refers to stm32l1xx_gpio.o(i.GPIO_ResetBits) for GPIO_ResetBits
    bsp_spi_flash.o(i.SPI_Flash_WAKEUP) refers to bsp_spi_flash.o(i.SPI_FLASH_SendByte) for SPI_FLASH_SendByte
    bsp_spi_flash.o(i.SPI_Flash_WAKEUP) refers to stm32l1xx_gpio.o(i.GPIO_SetBits) for GPIO_SetBits
    bsp_i2c.o(i.AI2C_Read) refers to bsp_i2c.o(i.Start) for Start
    bsp_i2c.o(i.AI2C_Read) refers to bsp_i2c.o(i.SendByte) for SendByte
    bsp_i2c.o(i.AI2C_Read) refers to bsp_i2c.o(i.WaitAck) for WaitAck
    bsp_i2c.o(i.AI2C_Read) refers to bsp_i2c.o(i.Stop) for Stop
    bsp_i2c.o(i.AI2C_Read) refers to bsp_i2c.o(i.RecvByte) for RecvByte
    bsp_i2c.o(i.AI2C_Read) refers to bsp_i2c.o(i.Ack) for Ack
    bsp_i2c.o(i.AI2C_Read) refers to global.o(.data) for uAddress
    bsp_i2c.o(i.AI2C_Write) refers to bsp_i2c.o(i.Start) for Start
    bsp_i2c.o(i.AI2C_Write) refers to bsp_i2c.o(i.SendByte) for SendByte
    bsp_i2c.o(i.AI2C_Write) refers to bsp_i2c.o(i.WaitAck) for WaitAck
    bsp_i2c.o(i.AI2C_Write) refers to bsp_i2c.o(i.Stop) for Stop
    bsp_i2c.o(i.AI2C_Write) refers to global.o(.data) for uAddress
    bsp_i2c.o(i.Ack) refers to stm32l1xx_gpio.o(i.GPIO_ResetBits) for GPIO_ResetBits
    bsp_i2c.o(i.Ack) refers to bsp_i2c.o(i.Delay) for Delay
    bsp_i2c.o(i.Ack) refers to stm32l1xx_gpio.o(i.GPIO_SetBits) for GPIO_SetBits
    bsp_i2c.o(i.Fram_Read) refers to bsp_i2c.o(i.Start) for Start
    bsp_i2c.o(i.Fram_Read) refers to bsp_i2c.o(i.SendByte) for SendByte
    bsp_i2c.o(i.Fram_Read) refers to bsp_i2c.o(i.WaitAck) for WaitAck
    bsp_i2c.o(i.Fram_Read) refers to bsp_i2c.o(i.Stop) for Stop
    bsp_i2c.o(i.Fram_Read) refers to bsp_i2c.o(i.RecvByte) for RecvByte
    bsp_i2c.o(i.Fram_Read) refers to bsp_i2c.o(i.Ack) for Ack
    bsp_i2c.o(i.Fram_Read) refers to global.o(.data) for uAddress
    bsp_i2c.o(i.Fram_Write) refers to bsp_i2c.o(i.Start) for Start
    bsp_i2c.o(i.Fram_Write) refers to bsp_i2c.o(i.SendByte) for SendByte
    bsp_i2c.o(i.Fram_Write) refers to bsp_i2c.o(i.WaitAck) for WaitAck
    bsp_i2c.o(i.Fram_Write) refers to bsp_i2c.o(i.Stop) for Stop
    bsp_i2c.o(i.Fram_Write) refers to global.o(.data) for uAddress
    bsp_i2c.o(i.RTC8025_ClearDALE) refers to bsp_i2c.o(i.RTC8025_Write) for RTC8025_Write
    bsp_i2c.o(i.RTC8025_ClearDALE) refers to bsp_i2c.o(i.RTC8025_Read) for RTC8025_Read
    bsp_i2c.o(i.RTC8025_ClearDALE) refers to global.o(.bss) for JlyParam
    bsp_i2c.o(i.RTC8025_Read) refers to bsp_i2c.o(i.Start) for Start
    bsp_i2c.o(i.RTC8025_Read) refers to bsp_i2c.o(i.SendByte) for SendByte
    bsp_i2c.o(i.RTC8025_Read) refers to bsp_i2c.o(i.WaitAck) for WaitAck
    bsp_i2c.o(i.RTC8025_Read) refers to bsp_i2c.o(i.Stop) for Stop
    bsp_i2c.o(i.RTC8025_Read) refers to bsp_i2c.o(i.RecvByte) for RecvByte
    bsp_i2c.o(i.RTC8025_Read) refers to bsp_i2c.o(i.Ack) for Ack
    bsp_i2c.o(i.RTC8025_Read) refers to global.o(.data) for uAddress
    bsp_i2c.o(i.RTC8025_Reset) refers to bsp_i2c.o(i.RTC8025_Write) for RTC8025_Write
    bsp_i2c.o(i.RTC8025_Reset) refers to bsp_rtc.o(i.read_time) for read_time
    bsp_i2c.o(i.RTC8025_Reset) refers to bsp_rtc.o(i.RtcBcdToD10) for RtcBcdToD10
    bsp_i2c.o(i.RTC8025_Reset) refers to bsp_rtc.o(i.RTC_Date_Time_To_Second) for RTC_Date_Time_To_Second
    bsp_i2c.o(i.RTC8025_Reset) refers to bsp_rtc.o(i.RTC_Second_To_Date_Time) for RTC_Second_To_Date_Time
    bsp_i2c.o(i.RTC8025_Reset) refers to bsp_rtc.o(i.RtcD10ToBcd) for RtcD10ToBcd
    bsp_i2c.o(i.RTC8025_Reset) refers to bsp_i2c.o(i.RTC8025_Read) for RTC8025_Read
    bsp_i2c.o(i.RTC8025_Reset) refers to printf8.o(i.__0printf$8) for __2printf
    bsp_i2c.o(i.RTC8025_Reset) refers to global.o(.bss) for JlyParam
    bsp_i2c.o(i.RTC8025_Write) refers to bsp_i2c.o(i.Start) for Start
    bsp_i2c.o(i.RTC8025_Write) refers to bsp_i2c.o(i.SendByte) for SendByte
    bsp_i2c.o(i.RTC8025_Write) refers to bsp_i2c.o(i.WaitAck) for WaitAck
    bsp_i2c.o(i.RTC8025_Write) refers to bsp_i2c.o(i.Stop) for Stop
    bsp_i2c.o(i.RTC8025_Write) refers to global.o(.data) for uAddress
    bsp_i2c.o(i.RecvByte) refers to stm32l1xx_gpio.o(i.GPIO_SetBits) for GPIO_SetBits
    bsp_i2c.o(i.RecvByte) refers to bsp_i2c.o(i.Delay) for Delay
    bsp_i2c.o(i.RecvByte) refers to stm32l1xx_gpio.o(i.GPIO_ResetBits) for GPIO_ResetBits
    bsp_i2c.o(i.RecvByte) refers to stm32l1xx_gpio.o(i.GPIO_ReadInputDataBit) for GPIO_ReadInputDataBit
    bsp_i2c.o(i.SendByte) refers to stm32l1xx_gpio.o(i.GPIO_ResetBits) for GPIO_ResetBits
    bsp_i2c.o(i.SendByte) refers to bsp_i2c.o(i.Delay) for Delay
    bsp_i2c.o(i.SendByte) refers to stm32l1xx_gpio.o(i.GPIO_SetBits) for GPIO_SetBits
    bsp_i2c.o(i.Start) refers to stm32l1xx_gpio.o(i.GPIO_SetBits) for GPIO_SetBits
    bsp_i2c.o(i.Start) refers to bsp_i2c.o(i.Delay) for Delay
    bsp_i2c.o(i.Start) refers to stm32l1xx_gpio.o(i.GPIO_ReadInputDataBit) for GPIO_ReadInputDataBit
    bsp_i2c.o(i.Start) refers to stm32l1xx_gpio.o(i.GPIO_ResetBits) for GPIO_ResetBits
    bsp_i2c.o(i.Stop) refers to stm32l1xx_gpio.o(i.GPIO_ResetBits) for GPIO_ResetBits
    bsp_i2c.o(i.Stop) refers to bsp_i2c.o(i.Delay) for Delay
    bsp_i2c.o(i.Stop) refers to stm32l1xx_gpio.o(i.GPIO_SetBits) for GPIO_SetBits
    bsp_i2c.o(i.WaitAck) refers to stm32l1xx_gpio.o(i.GPIO_ResetBits) for GPIO_ResetBits
    bsp_i2c.o(i.WaitAck) refers to bsp_i2c.o(i.Delay) for Delay
    bsp_i2c.o(i.WaitAck) refers to stm32l1xx_gpio.o(i.GPIO_SetBits) for GPIO_SetBits
    bsp_i2c.o(i.WaitAck) refers to stm32l1xx_gpio.o(i.GPIO_ReadInputDataBit) for GPIO_ReadInputDataBit
    bsp_timer.o(i.TIM2_Configuration) refers to stm32l1xx_rcc.o(i.RCC_APB1PeriphClockCmd) for RCC_APB1PeriphClockCmd
    bsp_timer.o(i.TIM2_Configuration) refers to stm32l1xx_tim.o(i.TIM_TimeBaseInit) for TIM_TimeBaseInit
    bsp_timer.o(i.TIM2_Configuration) refers to stm32l1xx_tim.o(i.TIM_ClearFlag) for TIM_ClearFlag
    bsp_timer.o(i.TIM2_Configuration) refers to stm32l1xx_tim.o(i.TIM_ITConfig) for TIM_ITConfig
    bsp_timer.o(i.TIM2_Configuration) refers to stm32l1xx_tim.o(i.TIM_Cmd) for TIM_Cmd
    bsp_timer.o(i.TIM2_Configuration) refers to bsp_timer.o(i.TIM2_NVIC_Configuration) for TIM2_NVIC_Configuration
    bsp_timer.o(i.TIM2_NVIC_Configuration) refers to misc.o(i.NVIC_PriorityGroupConfig) for NVIC_PriorityGroupConfig
    bsp_timer.o(i.TIM2_NVIC_Configuration) refers to misc.o(i.NVIC_Init) for NVIC_Init
    bsp_class.o(i.GetRecIntervalTime) refers to bsp_class.o(i.Change3BytesTimeToLong) for Change3BytesTimeToLong
    bsp_class.o(i.GetRecIntervalTime) refers to bsp_i2c.o(i.Fram_Write) for Fram_Write
    bsp_class.o(i.ValueFtToU16) refers to cfcmple.o(.text) for __aeabi_cfcmple
    bsp_class.o(i.ValueFtToU16) refers to f2d.o(.text) for __aeabi_f2d
    bsp_class.o(i.ValueFtToU16) refers to dmul.o(.text) for __aeabi_dmul
    bsp_class.o(i.ValueFtToU16) refers to d2f.o(.text) for __aeabi_d2f
    bsp_class.o(i.ValueFtToU16) refers to ffixui.o(.text) for __aeabi_f2uiz
    bsp_class.o(i.hex_2_ascii) refers to memcpya.o(.text) for __aeabi_memcpy4
    bsp_datadeal.o(i.JlyOffDeal) refers to bsp_bootstop.o(i.RecorderBootModeHandle) for RecorderBootModeHandle
    bsp_datadeal.o(i.JlyOffDeal) refers to bsp_init.o(i.OffPowerSupply) for OffPowerSupply
    bsp_datadeal.o(i.JlyOffDeal) refers to stm32l1xx_lcd.o(i.LCD_GetFlagStatus) for LCD_GetFlagStatus
    bsp_datadeal.o(i.JlyOffDeal) refers to bsp_lcd.o(i.displayErr) for displayErr
    bsp_datadeal.o(i.JlyOffDeal) refers to stm32l1xx_lcd.o(i.LCD_UpdateDisplayRequest) for LCD_UpdateDisplayRequest
    bsp_datadeal.o(i.JlyOffDeal) refers to bsp_lcd.o(i.lcd_OFF) for lcd_OFF
    bsp_datadeal.o(i.JlyOffDeal) refers to global.o(.bss) for Flag
    bsp_datadeal.o(i.JlySecDeal) refers to bsp_datadeal.o(i.OneSecTimedeal) for OneSecTimedeal
    bsp_datadeal.o(i.JlySecDeal) refers to bsp_rtc.o(i.rtc_deel) for rtc_deel
    bsp_datadeal.o(i.JlySecDeal) refers to bsp_powerdeal.o(i.ExternalPowerDetection) for ExternalPowerDetection
    bsp_datadeal.o(i.JlySecDeal) refers to bsp_bootstop.o(i.RecorderBootModeHandle) for RecorderBootModeHandle
    bsp_datadeal.o(i.JlySecDeal) refers to bsp_lcd.o(i.Display_ChannelValue) for Display_ChannelValue
    bsp_datadeal.o(i.JlySecDeal) refers to bsp_datadeal.o(i.WorkOrNotMode) for WorkOrNotMode
    bsp_datadeal.o(i.JlySecDeal) refers to bsp_storagedata.o(i.StorageHistoryData) for StorageHistoryData
    bsp_datadeal.o(i.JlySecDeal) refers to bsp_datadeal.o(i.JlyOffDeal) for JlyOffDeal
    bsp_datadeal.o(i.JlySecDeal) refers to global.o(.bss) for Flag
    bsp_datadeal.o(i.JlySecDeal) refers to global.o(.data) for StartedChannelForDisplay
    bsp_datadeal.o(i.LOWorNomalMode) refers to bsp_datasampledeal.o(i.SensorDataSampleDealAndBatteryVoltageDeal) for SensorDataSampleDealAndBatteryVoltageDeal
    bsp_datadeal.o(i.LOWorNomalMode) refers to global.o(.bss) for Conf
    bsp_datadeal.o(i.LOWorNomalMode) refers to global.o(.data) for JlySensor
    bsp_datadeal.o(i.OneSecTimedeal) refers to bsp_lcd.o(i.Display_Mem) for Display_Mem
    bsp_datadeal.o(i.OneSecTimedeal) refers to stm32l1xx_gpio.o(i.GPIO_SetBits) for GPIO_SetBits
    bsp_datadeal.o(i.OneSecTimedeal) refers to stm32l1xx_gpio.o(i.GPIO_ReadInputDataBit) for GPIO_ReadInputDataBit
    bsp_datadeal.o(i.OneSecTimedeal) refers to bsp_systick.o(i.Delay_ms) for Delay_ms
    bsp_datadeal.o(i.OneSecTimedeal) refers to bsp_alarmdeal.o(i.BellNn) for BellNn
    bsp_datadeal.o(i.OneSecTimedeal) refers to bsp_rtc.o(i.rtc_deel) for rtc_deel
    bsp_datadeal.o(i.OneSecTimedeal) refers to global.o(.data) for display_ct
    bsp_datadeal.o(i.OneSecTimedeal) refers to global.o(.bss) for Flag
    bsp_datadeal.o(i.WorkOrNotMode) refers to bsp_datadeal.o(i.LOWorNomalMode) for LOWorNomalMode
    bsp_datadeal.o(i.WorkOrNotMode) refers to bsp_datadeal.o(i.JlyOffDeal) for JlyOffDeal
    bsp_datadeal.o(i.WorkOrNotMode) refers to global.o(.bss) for Conf
    bsp_rtc.o(i.DateToSeconds) refers to bsp_rtc.o(.data) for month
    bsp_rtc.o(i.RTC_Second_To_Date_Time) refers to bsp_rtc.o(.data) for month_days
    bsp_rtc.o(i.ReadRX8025Control2) refers to bsp_i2c.o(i.RTC8025_Read) for RTC8025_Read
    bsp_rtc.o(i.Reset_Time) refers to bsp_i2c.o(i.RTC8025_Write) for RTC8025_Write
    bsp_rtc.o(i.read_time) refers to bsp_i2c.o(i.RTC8025_Read) for RTC8025_Read
    bsp_rtc.o(i.read_time) refers to global.o(.bss) for Rtc
    bsp_rtc.o(i.rtc_deel) refers to bsp_rtc.o(i.read_time) for read_time
    bsp_rtc.o(i.rtc_deel) refers to stm32l1xx_lcd.o(i.LCD_GetFlagStatus) for LCD_GetFlagStatus
    bsp_rtc.o(i.rtc_deel) refers to bsp_lcd.o(i.displayTIME) for displayTIME
    bsp_rtc.o(i.rtc_deel) refers to stm32l1xx_lcd.o(i.LCD_UpdateDisplayRequest) for LCD_UpdateDisplayRequest
    bsp_rtc.o(i.rtc_deel) refers to bsp_lcd.o(i.displayDAY) for displayDAY
    bsp_rtc.o(i.rtc_deel) refers to bsp_lcd.o(i.displayYEAR) for displayYEAR
    bsp_rtc.o(i.rtc_deel) refers to global.o(.data) for rtc_pt
    bsp_rtc.o(i.rtc_deel) refers to global.o(.bss) for Rtc
    bsp_rtc.o(i.serialread_time) refers to bsp_rtc.o(i.read_time) for read_time
    bsp_rtc.o(i.serialread_time) refers to bsp_i2c.o(i.Fram_Write) for Fram_Write
    bsp_rtc.o(i.serialread_time) refers to global.o(.bss) for Rtc
    bsp_rtc.o(i.set_time) refers to bsp_i2c.o(i.RTC8025_Write) for RTC8025_Write
    bsp_rtc.o(i.set_time) refers to global.o(.bss) for Conf
    bsp_alarmdeal.o(i.AlarmAction) refers to bsp_alarmdeal.o(i.BellNn_longer) for BellNn_longer
    bsp_alarmdeal.o(i.AlarmAction) refers to stm32l1xx_lcd.o(i.LCD_GetFlagStatus) for LCD_GetFlagStatus
    bsp_alarmdeal.o(i.AlarmAction) refers to stm32l1xx_lcd.o(i.LCD_UpdateDisplayRequest) for LCD_UpdateDisplayRequest
    bsp_alarmdeal.o(i.AlarmAction) refers to stm32l1xx_gpio.o(i.GPIO_ResetBits) for GPIO_ResetBits
    bsp_alarmdeal.o(i.AlarmAction) refers to global.o(.bss) for Conf
    bsp_alarmdeal.o(i.AlarmDeal) refers to cfrcmple.o(.text) for __aeabi_cfrcmple
    bsp_alarmdeal.o(i.AlarmDeal) refers to bsp_alarmdeal.o(i.CloseAlarm) for CloseAlarm
    bsp_alarmdeal.o(i.AlarmDeal) refers to bsp_rtc.o(i.read_time) for read_time
    bsp_alarmdeal.o(i.AlarmDeal) refers to bsp_alarmdeal.o(i.AlarmAction) for AlarmAction
    bsp_alarmdeal.o(i.AlarmDeal) refers to bsp_storagedata.o(i.WriteU16Pointer) for WriteU16Pointer
    bsp_alarmdeal.o(i.AlarmDeal) refers to cfcmple.o(.text) for __aeabi_cfcmple
    bsp_alarmdeal.o(i.AlarmDeal) refers to stm32l1xx_gpio.o(i.GPIO_ResetBits) for GPIO_ResetBits
    bsp_alarmdeal.o(i.AlarmDeal) refers to global.o(.bss) for Conf
    bsp_alarmdeal.o(i.BellNn) refers to stm32l1xx_gpio.o(i.GPIO_SetBits) for GPIO_SetBits
    bsp_alarmdeal.o(i.BellNn) refers to bsp_systick.o(i.Delay_ms) for Delay_ms
    bsp_alarmdeal.o(i.BellNn) refers to stm32l1xx_gpio.o(i.GPIO_ResetBits) for GPIO_ResetBits
    bsp_alarmdeal.o(i.BellNn_longer) refers to stm32l1xx_gpio.o(i.GPIO_SetBits) for GPIO_SetBits
    bsp_alarmdeal.o(i.BellNn_longer) refers to bsp_systick.o(i.Delay_ms) for Delay_ms
    bsp_alarmdeal.o(i.BellNn_longer) refers to stm32l1xx_gpio.o(i.GPIO_ResetBits) for GPIO_ResetBits
    bsp_alarmdeal.o(i.CloseAlarm) refers to stm32l1xx_lcd.o(i.LCD_GetFlagStatus) for LCD_GetFlagStatus
    bsp_alarmdeal.o(i.CloseAlarm) refers to stm32l1xx_lcd.o(i.LCD_UpdateDisplayRequest) for LCD_UpdateDisplayRequest
    bsp_alarmdeal.o(i.CloseAlarm) refers to stm32l1xx_gpio.o(i.GPIO_ResetBits) for GPIO_ResetBits
    bsp_powerdeal.o(i.BatteryVoltageDeal) refers to bsp_powerdeal.o(i.BatteryVoltageSampleDataDeal) for BatteryVoltageSampleDataDeal
    bsp_powerdeal.o(i.BatteryVoltageDeal) refers to stm32l1xx_lcd.o(i.LCD_GetFlagStatus) for LCD_GetFlagStatus
    bsp_powerdeal.o(i.BatteryVoltageDeal) refers to stm32l1xx_lcd.o(i.LCD_UpdateDisplayRequest) for LCD_UpdateDisplayRequest
    bsp_powerdeal.o(i.BatteryVoltageDeal) refers to global.o(.bss) for Flag
    bsp_powerdeal.o(i.BatteryVoltageSampleDataDeal) refers to ffltui.o(.text) for __aeabi_ui2f
    bsp_powerdeal.o(i.BatteryVoltageSampleDataDeal) refers to fdiv.o(.text) for __aeabi_fdiv
    bsp_powerdeal.o(i.BatteryVoltageSampleDataDeal) refers to f2d.o(.text) for __aeabi_f2d
    bsp_powerdeal.o(i.BatteryVoltageSampleDataDeal) refers to dmul.o(.text) for __aeabi_dmul
    bsp_powerdeal.o(i.BatteryVoltageSampleDataDeal) refers to d2f.o(.text) for __aeabi_d2f
    bsp_powerdeal.o(i.BatteryVoltageSampleDataDeal) refers to fmul.o(.text) for __aeabi_fmul
    bsp_powerdeal.o(i.BatteryVoltageSampleDataDeal) refers to ffixui.o(.text) for __aeabi_f2uiz
    bsp_powerdeal.o(i.BatteryVoltageSampleDataDeal) refers to stm32l1xx_lcd.o(i.LCD_GetFlagStatus) for LCD_GetFlagStatus
    bsp_powerdeal.o(i.BatteryVoltageSampleDataDeal) refers to stm32l1xx_lcd.o(i.LCD_UpdateDisplayRequest) for LCD_UpdateDisplayRequest
    bsp_powerdeal.o(i.BatteryVoltageSampleDataDeal) refers to global.o(.bss) for PManage
    bsp_powerdeal.o(i.ExternalPowerDetection) refers to stm32l1xx_gpio.o(i.GPIO_ReadInputDataBit) for GPIO_ReadInputDataBit
    bsp_powerdeal.o(i.ExternalPowerDetection) refers to stm32l1xx_lcd.o(i.LCD_GetFlagStatus) for LCD_GetFlagStatus
    bsp_powerdeal.o(i.ExternalPowerDetection) refers to stm32l1xx_lcd.o(i.LCD_UpdateDisplayRequest) for LCD_UpdateDisplayRequest
    bsp_powerdeal.o(i.ExternalPowerDetection) refers to global.o(.bss) for Flag
    bsp_powerdeal.o(i.FirstCheckExternPower) refers to stm32l1xx_gpio.o(i.GPIO_ReadInputDataBit) for GPIO_ReadInputDataBit
    bsp_powerdeal.o(i.FirstCheckExternPower) refers to global.o(.bss) for Flag
    bsp_serialdeal.o(i.AlarmConfDataUpdate) refers to global.o(.bss) for Conf
    bsp_serialdeal.o(i.HISTORY_DATA_READ) refers to bsp_spi_flash.o(i.SPI_FLASH_BufferRead) for SPI_FLASH_BufferRead
    bsp_serialdeal.o(i.HISTORY_DATA_READ) refers to global.o(.bss) for Queue
    bsp_serialdeal.o(i.JlyConfDataUpData) refers to bsp_storagedata.o(i.WriteU16Pointer) for WriteU16Pointer
    bsp_serialdeal.o(i.JlyConfDataUpData) refers to bsp_storagedata.o(i.WriteU32Pointer) for WriteU32Pointer
    bsp_serialdeal.o(i.JlyConfDataUpData) refers to bsp_storagedata.o(i.SetFlashOverFlow) for SetFlashOverFlow
    bsp_serialdeal.o(i.JlyConfDataUpData) refers to bsp_i2c.o(i.Fram_Write) for Fram_Write
    bsp_serialdeal.o(i.JlyConfDataUpData) refers to bsp_class.o(i.Change3BytesTimeToLong) for Change3BytesTimeToLong
    bsp_serialdeal.o(i.JlyConfDataUpData) refers to bsp_class.o(i.GetRecIntervalTime) for GetRecIntervalTime
    bsp_serialdeal.o(i.JlyConfDataUpData) refers to global.o(.data) for ChannelForDisplay
    bsp_serialdeal.o(i.JlyConfDataUpData) refers to global.o(.bss) for Flag
    bsp_serialdeal.o(i.PARAM_DATA_READ) refers to bsp_serialdeal.o(i.ReadBatVoltage) for ReadBatVoltage
    bsp_serialdeal.o(i.PARAM_DATA_READ) refers to bsp_i2c.o(i.Fram_Read) for Fram_Read
    bsp_serialdeal.o(i.PARAM_DATA_READ) refers to bsp_rtc.o(i.serialread_time) for serialread_time
    bsp_serialdeal.o(i.PARAM_DATA_READ) refers to global.o(.bss) for PManage
    bsp_serialdeal.o(i.PARAM_DATA_READ) refers to global.o(.constdata) for ConfMap_Address
    bsp_serialdeal.o(i.PARAM_DATA_WRITE) refers to bsp_i2c.o(i.Fram_Write) for Fram_Write
    bsp_serialdeal.o(i.PARAM_DATA_WRITE) refers to bsp_i2c.o(i.Fram_Read) for Fram_Read
    bsp_serialdeal.o(i.PARAM_DATA_WRITE) refers to bsp_init.o(i.WriteSetFramFlag) for WriteSetFramFlag
    bsp_serialdeal.o(i.PARAM_DATA_WRITE) refers to bsp_lcd.o(i.Display_SN) for Display_SN
    bsp_serialdeal.o(i.PARAM_DATA_WRITE) refers to bsp_serialdeal.o(i.JlyConfDataUpData) for JlyConfDataUpData
    bsp_serialdeal.o(i.PARAM_DATA_WRITE) refers to bsp_lcd.o(i.JudgingChannelNumberDisplay) for JudgingChannelNumberDisplay
    bsp_serialdeal.o(i.PARAM_DATA_WRITE) refers to bsp_rtc.o(i.set_time) for set_time
    bsp_serialdeal.o(i.PARAM_DATA_WRITE) refers to bsp_lcd.o(i.displayTIME) for displayTIME
    bsp_serialdeal.o(i.PARAM_DATA_WRITE) refers to bsp_serialdeal.o(i.AlarmConfDataUpdate) for AlarmConfDataUpdate
    bsp_serialdeal.o(i.PARAM_DATA_WRITE) refers to bsp_serialdeal.o(i.SetJlyParamJudgeSensorTypeChannelSwitch) for SetJlyParamJudgeSensorTypeChannelSwitch
    bsp_serialdeal.o(i.PARAM_DATA_WRITE) refers to global.o(.constdata) for ConfMap_Address
    bsp_serialdeal.o(i.PARAM_DATA_WRITE) refers to global.o(.bss) for Conf
    bsp_serialdeal.o(i.REALDATA_DATA_READ) refers to bsp_spi_flash.o(i.SPI_FLASH_BufferRead) for SPI_FLASH_BufferRead
    bsp_serialdeal.o(i.REALDATA_DATA_READ) refers to global.o(.bss) for Queue
    bsp_serialdeal.o(i.ReadBatVoltage) refers to bsp_i2c.o(i.Fram_Write) for Fram_Write
    bsp_serialdeal.o(i.ReadBatVoltage) refers to global.o(.bss) for Conf
    bsp_serialdeal.o(i.STORAGE_DATA_READ) refers to bsp_spi_flash.o(i.SPI_FLASH_BufferRead) for SPI_FLASH_BufferRead
    bsp_serialdeal.o(i.STORAGE_DATA_READ) refers to bsp_storagedata.o(i.WriteU32Pointer) for WriteU32Pointer
    bsp_serialdeal.o(i.STORAGE_DATA_READ) refers to global.o(.bss) for Queue
    bsp_serialdeal.o(i.SetJlyParamJudgeSensorTypeChannelSwitch) refers to bsp_storagedata.o(i.WriteU16Pointer) for WriteU16Pointer
    bsp_serialdeal.o(i.SetJlyParamJudgeSensorTypeChannelSwitch) refers to bsp_storagedata.o(i.WriteU32Pointer) for WriteU32Pointer
    bsp_serialdeal.o(i.SetJlyParamJudgeSensorTypeChannelSwitch) refers to bsp_storagedata.o(i.SetFlashOverFlow) for SetFlashOverFlow
    bsp_serialdeal.o(i.SetJlyParamJudgeSensorTypeChannelSwitch) refers to bsp_i2c.o(i.Fram_Write) for Fram_Write
    bsp_serialdeal.o(i.SetJlyParamJudgeSensorTypeChannelSwitch) refers to global.o(.data) for ChannelForDisplay
    bsp_serialdeal.o(i.SetJlyParamJudgeSensorTypeChannelSwitch) refers to global.o(.bss) for JlyParam
    bsp_bootstop.o(i.RecorderBootModeHandle) refers to bsp_i2c.o(i.Fram_Write) for Fram_Write
    bsp_bootstop.o(i.RecorderBootModeHandle) refers to bsp_rtc.o(i.read_time) for read_time
    bsp_bootstop.o(i.RecorderBootModeHandle) refers to global.o(.bss) for JlyParam
    bsp_bootstop.o(i.RecorderStopModeHandle) refers to bsp_i2c.o(i.Fram_Write) for Fram_Write
    bsp_bootstop.o(i.RecorderStopModeHandle) refers to global.o(.bss) for Conf
    bsp_storagedata.o(i.ChannelDataDeal) refers to cfrcmple.o(.text) for __aeabi_cfrcmple
    bsp_storagedata.o(i.ChannelDataDeal) refers to cfcmple.o(.text) for __aeabi_cfcmple
    bsp_storagedata.o(i.ChannelDataDeal) refers to bsp_class.o(i.ValueFtToU16) for ValueFtToU16
    bsp_storagedata.o(i.ChannelDataDeal) refers to bsp_rtc.o(i.read_time) for read_time
    bsp_storagedata.o(i.ChannelDataDeal) refers to global.o(.bss) for Conf
    bsp_storagedata.o(i.DownFlash_HisData) refers to bsp_storagedata.o(i.ReadU32Pointer) for ReadU32Pointer
    bsp_storagedata.o(i.DownFlash_HisData) refers to bsp_storagedata.o(i.ReadFlashHisData) for ReadFlashHisData
    bsp_storagedata.o(i.DownFlash_HisData) refers to printf8.o(i.__0printf$8) for __2printf
    bsp_storagedata.o(i.DownFlash_HisData) refers to global.o(.bss) for Queue
    bsp_storagedata.o(i.ReadFlashHisData) refers to bsp_spi_flash.o(i.SPI_FLASH_BufferRead) for SPI_FLASH_BufferRead
    bsp_storagedata.o(i.ReadFlashHisData) refers to bsp_class.o(i.U16ToValue10) for U16ToValue10
    bsp_storagedata.o(i.ReadFlashHisData) refers to printf8.o(i.__0printf$8) for __2printf
    bsp_storagedata.o(i.ReadFlashHisData) refers to global.o(.bss) for Queue
    bsp_storagedata.o(i.ReadFlashHisData) refers to bsp_storagedata.o(.constdata) for .constdata
    bsp_storagedata.o(i.ReadFramHisDataToRam) refers to bsp_i2c.o(i.AI2C_Read) for AI2C_Read
    bsp_storagedata.o(i.ReadFramHisDataToRam) refers to printf8.o(i.__0printf$8) for __2printf
    bsp_storagedata.o(i.ReadFramHisDataToRam) refers to global.o(.bss) for Queue
    bsp_storagedata.o(i.ReadU16Pointer) refers to bsp_i2c.o(i.Fram_Read) for Fram_Read
    bsp_storagedata.o(i.ReadU32Pointer) refers to bsp_i2c.o(i.Fram_Read) for Fram_Read
    bsp_storagedata.o(i.SaveDataOnTimeDeal) refers to bsp_storagedata.o(i.ChannelDataDeal) for ChannelDataDeal
    bsp_storagedata.o(i.SaveDataOnTimeDeal) refers to bsp_storagedata.o(i.SaveHisDataToFlash) for SaveHisDataToFlash
    bsp_storagedata.o(i.SaveDataOnTimeDeal) refers to global.o(.bss) for JlyParam
    bsp_storagedata.o(i.SaveHisDataToFlash) refers to bsp_storagedata.o(i.ReadU32Pointer) for ReadU32Pointer
    bsp_storagedata.o(i.SaveHisDataToFlash) refers to bsp_storagedata.o(i.ReadU16Pointer) for ReadU16Pointer
    bsp_storagedata.o(i.SaveHisDataToFlash) refers to bsp_spi_flash.o(i.SPI_FLASH_SectorErase) for SPI_FLASH_SectorErase
    bsp_storagedata.o(i.SaveHisDataToFlash) refers to bsp_storagedata.o(i.WriteU16Pointer) for WriteU16Pointer
    bsp_storagedata.o(i.SaveHisDataToFlash) refers to bsp_storagedata.o(i.WriteU32Pointer) for WriteU32Pointer
    bsp_storagedata.o(i.SaveHisDataToFlash) refers to bsp_spi_flash.o(i.SPI_FLASH_BufferWrite) for SPI_FLASH_BufferWrite
    bsp_storagedata.o(i.SaveHisDataToFlash) refers to bsp_bootstop.o(i.RecorderStopModeHandle) for RecorderStopModeHandle
    bsp_storagedata.o(i.SaveHisDataToFlash) refers to bsp_storagedata.o(i.SetFlashOverFlow) for SetFlashOverFlow
    bsp_storagedata.o(i.SaveHisDataToFlash) refers to global.o(.bss) for Queue
    bsp_storagedata.o(i.SetFlashOverFlow) refers to bsp_i2c.o(i.Fram_Write) for Fram_Write
    bsp_storagedata.o(i.SetFlashOverFlow) refers to global.o(.bss) for Queue
    bsp_storagedata.o(i.StorageHistoryData) refers to bsp_storagedata.o(i.SaveDataOnTimeDeal) for SaveDataOnTimeDeal
    bsp_storagedata.o(i.StorageHistoryData) refers to global.o(.bss) for Conf
    bsp_storagedata.o(i.WriteU16Pointer) refers to bsp_i2c.o(i.Fram_Write) for Fram_Write
    bsp_storagedata.o(i.WriteU32Pointer) refers to bsp_i2c.o(i.Fram_Write) for Fram_Write
    bsp_lowpowerdeal.o(i.EnterLowPower) refers to bsp_lowpowerdeal.o(i.EnterStopModePowerDeal) for EnterStopModePowerDeal
    bsp_lowpowerdeal.o(i.EnterLowPower) refers to global.o(.bss) for JlyParam
    bsp_lowpowerdeal.o(i.EnterStopModePowerDeal) refers to bsp_i2c.o(i.RTC8025_Reset) for RTC8025_Reset
    bsp_lowpowerdeal.o(i.EnterStopModePowerDeal) refers to stm32l1xx_pwr.o(i.PWR_GetFlagStatus) for PWR_GetFlagStatus
    bsp_lowpowerdeal.o(i.EnterStopModePowerDeal) refers to stm32l1xx_pwr.o(i.PWR_ClearFlag) for PWR_ClearFlag
    bsp_lowpowerdeal.o(i.EnterStopModePowerDeal) refers to printf8.o(i.__0printf$8) for __2printf
    bsp_lowpowerdeal.o(i.EnterStopModePowerDeal) refers to bsp_lcd.o(i.Display_LOW) for Display_LOW
    bsp_lowpowerdeal.o(i.EnterStopModePowerDeal) refers to bsp_init.o(i.OffPowerSupply) for OffPowerSupply
    bsp_lowpowerdeal.o(i.EnterStopModePowerDeal) refers to stm32l1xx_rcc.o(i.RCC_APB1PeriphClockCmd) for RCC_APB1PeriphClockCmd
    bsp_lowpowerdeal.o(i.EnterStopModePowerDeal) refers to stm32l1xx_pwr.o(i.PWR_EnterSTOPMode) for PWR_EnterSTOPMode
    bsp_lowpowerdeal.o(i.EnterStopModePowerDeal) refers to bsp_init.o(i.SysClock_ReConfig) for SysClock_ReConfig
    bsp_lowpowerdeal.o(i.EnterStopModePowerDeal) refers to global.o(.data) for JlySensor
    bsp_lowpowerdeal.o(i.EnterStopModePowerDeal) refers to global.o(.bss) for JlyParam
    bsp_datasampledeal.o(i.DoGatherChannelDataFloat) refers to bsp_datasampledeal.o(i.SensorTypeDataDeal) for SensorTypeDataDeal
    bsp_datasampledeal.o(i.DoGatherChannelDataFloat) refers to global.o(.bss) for Conf
    bsp_datasampledeal.o(i.HumiChang_to_Shishu) refers to fmul.o(.text) for __aeabi_fmul
    bsp_datasampledeal.o(i.HumiChang_to_Shishu) refers to ffltui.o(.text) for __aeabi_ui2f
    bsp_datasampledeal.o(i.HumiChang_to_Shishu) refers to f2d.o(.text) for __aeabi_f2d
    bsp_datasampledeal.o(i.HumiChang_to_Shishu) refers to dmul.o(.text) for __aeabi_dmul
    bsp_datasampledeal.o(i.HumiChang_to_Shishu) refers to d2f.o(.text) for __aeabi_d2f
    bsp_datasampledeal.o(i.HumiChang_to_Shishu) refers to bsp_class.o(i.Char_to_Int) for Char_to_Int
    bsp_datasampledeal.o(i.HumiChang_to_Shishu) refers to fadd.o(.text) for __aeabi_fadd
    bsp_datasampledeal.o(i.HumiChang_to_Shishu) refers to fdiv.o(.text) for __aeabi_fdiv
    bsp_datasampledeal.o(i.HumiChang_to_Shishu) refers to cfrcmple.o(.text) for __aeabi_cfrcmple
    bsp_datasampledeal.o(i.HumiChang_to_Shishu) refers to global.o(.constdata) for RESET_CHANNEL_SETUP_TABLE
    bsp_datasampledeal.o(i.HumiChang_to_Shishu) refers to global.o(.data) for AdjustCurveFirAddress
    bsp_datasampledeal.o(i.Humi_Adjust) refers to memcpya.o(.text) for __aeabi_memcpy4
    bsp_datasampledeal.o(i.Humi_Adjust) refers to f2d.o(.text) for __aeabi_f2d
    bsp_datasampledeal.o(i.Humi_Adjust) refers to dadd.o(.text) for __aeabi_dsub
    bsp_datasampledeal.o(i.Humi_Adjust) refers to cdcmple.o(.text) for __aeabi_cdcmple
    bsp_datasampledeal.o(i.Humi_Adjust) refers to cdrcmple.o(.text) for __aeabi_cdrcmple
    bsp_datasampledeal.o(i.Humi_Adjust) refers to fmul.o(.text) for __aeabi_fmul
    bsp_datasampledeal.o(i.Humi_Adjust) refers to fflti.o(.text) for __aeabi_i2f
    bsp_datasampledeal.o(i.Humi_Adjust) refers to fadd.o(.text) for __aeabi_frsub
    bsp_datasampledeal.o(i.Humi_Adjust) refers to cfrcmple.o(.text) for __aeabi_cfrcmple
    bsp_datasampledeal.o(i.Humi_Adjust) refers to cfcmple.o(.text) for __aeabi_cfcmple
    bsp_datasampledeal.o(i.Humi_Adjust) refers to fdiv.o(.text) for __aeabi_fdiv
    bsp_datasampledeal.o(i.Humi_Adjust) refers to bsp_datasampledeal.o(.constdata) for .constdata
    bsp_datasampledeal.o(i.SamplingDataAveraging) refers to global.o(.bss) for adcCopy
    bsp_datasampledeal.o(i.SamplingDataDealGather) refers to global.o(.bss) for adcCopy
    bsp_datasampledeal.o(i.SensorDataSampleDealAndBatteryVoltageDeal) refers to stm32l1xx_gpio.o(i.GPIO_ResetBits) for GPIO_ResetBits
    bsp_datasampledeal.o(i.SensorDataSampleDealAndBatteryVoltageDeal) refers to stm32l1xx_gpio.o(i.GPIO_SetBits) for GPIO_SetBits
    bsp_datasampledeal.o(i.SensorDataSampleDealAndBatteryVoltageDeal) refers to bsp_datasampledeal.o(i.StartAdcSampleData) for StartAdcSampleData
    bsp_datasampledeal.o(i.SensorDataSampleDealAndBatteryVoltageDeal) refers to stm32l1xx_dma.o(i.DMA_GetFlagStatus) for DMA_GetFlagStatus
    bsp_datasampledeal.o(i.SensorDataSampleDealAndBatteryVoltageDeal) refers to bsp_datasampledeal.o(i.SamplingDataAveraging) for SamplingDataAveraging
    bsp_datasampledeal.o(i.SensorDataSampleDealAndBatteryVoltageDeal) refers to bsp_datasampledeal.o(i.DoGatherChannelDataFloat) for DoGatherChannelDataFloat
    bsp_datasampledeal.o(i.SensorDataSampleDealAndBatteryVoltageDeal) refers to bsp_powerdeal.o(i.BatteryVoltageDeal) for BatteryVoltageDeal
    bsp_datasampledeal.o(i.SensorDataSampleDealAndBatteryVoltageDeal) refers to bsp_datasampledeal.o(i.SamplingDataDealGather) for SamplingDataDealGather
    bsp_datasampledeal.o(i.SensorDataSampleDealAndBatteryVoltageDeal) refers to bsp_datasampledeal.o(.data) for s_FSM
    bsp_datasampledeal.o(i.SensorDataSampleDealAndBatteryVoltageDeal) refers to global.o(.bss) for Conf
    bsp_datasampledeal.o(i.SensorDataSampleDealAndBatteryVoltageDeal) refers to global.o(.data) for JlySensor
    bsp_datasampledeal.o(i.SensorTypeDataDeal) refers to bsp_datasampledeal.o(i.TempChang_to_Shishu) for TempChang_to_Shishu
    bsp_datasampledeal.o(i.SensorTypeDataDeal) refers to bsp_datasampledeal.o(i.Temp_Adjust) for Temp_Adjust
    bsp_datasampledeal.o(i.SensorTypeDataDeal) refers to ffltui.o(.text) for __aeabi_ui2f
    bsp_datasampledeal.o(i.SensorTypeDataDeal) refers to fdiv.o(.text) for __aeabi_fdiv
    bsp_datasampledeal.o(i.SensorTypeDataDeal) refers to f2d.o(.text) for __aeabi_f2d
    bsp_datasampledeal.o(i.SensorTypeDataDeal) refers to dadd.o(.text) for __aeabi_dsub
    bsp_datasampledeal.o(i.SensorTypeDataDeal) refers to ddiv.o(.text) for __aeabi_ddiv
    bsp_datasampledeal.o(i.SensorTypeDataDeal) refers to d2f.o(.text) for __aeabi_d2f
    bsp_datasampledeal.o(i.SensorTypeDataDeal) refers to dmul.o(.text) for __aeabi_dmul
    bsp_datasampledeal.o(i.SensorTypeDataDeal) refers to ffixui.o(.text) for __aeabi_f2uiz
    bsp_datasampledeal.o(i.SensorTypeDataDeal) refers to bsp_datasampledeal.o(i.HumiChang_to_Shishu) for HumiChang_to_Shishu
    bsp_datasampledeal.o(i.SensorTypeDataDeal) refers to bsp_datasampledeal.o(i.Humi_Adjust) for Humi_Adjust
    bsp_datasampledeal.o(i.SensorTypeDataDeal) refers to global.o(.bss) for adc
    bsp_datasampledeal.o(i.StartAdcSampleData) refers to stm32l1xx_adc.o(i.ADC_SoftwareStartConv) for ADC_SoftwareStartConv
    bsp_datasampledeal.o(i.StartAdcSampleData) refers to global.o(.bss) for adc
    bsp_datasampledeal.o(i.TempChang_to_Shishu) refers to fmul.o(.text) for __aeabi_fmul
    bsp_datasampledeal.o(i.TempChang_to_Shishu) refers to ffltui.o(.text) for __aeabi_ui2f
    bsp_datasampledeal.o(i.TempChang_to_Shishu) refers to f2d.o(.text) for __aeabi_f2d
    bsp_datasampledeal.o(i.TempChang_to_Shishu) refers to dmul.o(.text) for __aeabi_dmul
    bsp_datasampledeal.o(i.TempChang_to_Shishu) refers to d2f.o(.text) for __aeabi_d2f
    bsp_datasampledeal.o(i.TempChang_to_Shishu) refers to bsp_class.o(i.Char_to_Int) for Char_to_Int
    bsp_datasampledeal.o(i.TempChang_to_Shishu) refers to fadd.o(.text) for __aeabi_fadd
    bsp_datasampledeal.o(i.TempChang_to_Shishu) refers to fdiv.o(.text) for __aeabi_fdiv
    bsp_datasampledeal.o(i.TempChang_to_Shishu) refers to cfrcmple.o(.text) for __aeabi_cfrcmple
    bsp_datasampledeal.o(i.TempChang_to_Shishu) refers to global.o(.constdata) for RESET_CHANNEL_SETUP_TABLE
    bsp_datasampledeal.o(i.TempChang_to_Shishu) refers to global.o(.data) for AdjustCurveFirAddress
    bsp_datasampledeal.o(i.Temp_Adjust) refers to memcpya.o(.text) for __aeabi_memcpy4
    bsp_datasampledeal.o(i.Temp_Adjust) refers to f2d.o(.text) for __aeabi_f2d
    bsp_datasampledeal.o(i.Temp_Adjust) refers to dadd.o(.text) for __aeabi_dsub
    bsp_datasampledeal.o(i.Temp_Adjust) refers to cdcmple.o(.text) for __aeabi_cdcmple
    bsp_datasampledeal.o(i.Temp_Adjust) refers to cdrcmple.o(.text) for __aeabi_cdrcmple
    bsp_datasampledeal.o(i.Temp_Adjust) refers to fmul.o(.text) for __aeabi_fmul
    bsp_datasampledeal.o(i.Temp_Adjust) refers to fflti.o(.text) for __aeabi_i2f
    bsp_datasampledeal.o(i.Temp_Adjust) refers to fadd.o(.text) for __aeabi_frsub
    bsp_datasampledeal.o(i.Temp_Adjust) refers to cfcmple.o(.text) for __aeabi_cfcmple
    bsp_datasampledeal.o(i.Temp_Adjust) refers to fdiv.o(.text) for __aeabi_fdiv
    bsp_datasampledeal.o(i.Temp_Adjust) refers to cfrcmple.o(.text) for __aeabi_cfrcmple
    bsp_datasampledeal.o(i.Temp_Adjust) refers to bsp_datasampledeal.o(.constdata) for .constdata
    stm32l1xx_hal_cortex.o(i.HAL_NVIC_GetPriorityGrouping) refers to stm32l1xx_hal_cortex.o(i.NVIC_GetPriorityGrouping) for NVIC_GetPriorityGrouping
    stm32l1xx_hal_cortex.o(i.HAL_NVIC_SetPriority) refers to stm32l1xx_hal_cortex.o(i.NVIC_GetPriorityGrouping) for NVIC_GetPriorityGrouping
    stm32l1xx_hal_cortex.o(i.HAL_NVIC_SetPriority) refers to stm32l1xx_hal_cortex.o(i.NVIC_SetPriority) for NVIC_SetPriority
    stm32l1xx_hal_cortex.o(i.HAL_SYSTICK_Config) refers to stm32l1xx_hal_cortex.o(i.NVIC_SetPriority) for NVIC_SetPriority
    stm32l1xx_hal_cortex.o(i.HAL_SYSTICK_IRQHandler) refers to stm32l1xx_hal_cortex.o(i.HAL_SYSTICK_Callback) for HAL_SYSTICK_Callback
    stm32l1xx_hal_gpio.o(i.HAL_GPIO_EXTI_IRQHandler) refers to stm32l1xx_hal_gpio.o(i.HAL_GPIO_EXTI_Callback) for HAL_GPIO_EXTI_Callback
    port.o(i.xMBOutput) refers to printfa.o(i.__0vsprintf) for __c89vsprintf
    port.o(i.xMBOutput) refers to printf8.o(i.__0printf$8) for __2printf
    port.o(i.xMBOutput) refers to port.o(.bss) for str
    mb.o(i.eMBClose) refers to mb.o(.data) for eMBState
    mb.o(i.eMBDisable) refers to mb.o(.data) for eMBState
    mb.o(i.eMBEnable) refers to mb.o(.data) for eMBState
    mb.o(i.eMBInit) refers to mbrtu.o(i.eMBRTUInit) for eMBRTUInit
    mb.o(i.eMBInit) refers to portevent.o(i.xMBPortEventInit) for xMBPortEventInit
    mb.o(i.eMBInit) refers to mb.o(.data) for ucMBAddress
    mb.o(i.eMBInit) refers to mbrtu.o(i.eMBRTUStart) for eMBRTUStart
    mb.o(i.eMBInit) refers to mbrtu.o(i.eMBRTUStop) for eMBRTUStop
    mb.o(i.eMBInit) refers to mbrtu.o(i.eMBRTUSend) for eMBRTUSend
    mb.o(i.eMBInit) refers to mbrtu.o(i.eMBRTUReceive) for eMBRTUReceive
    mb.o(i.eMBInit) refers to mbrtu.o(i.xMBRTUReceiveFSM) for xMBRTUReceiveFSM
    mb.o(i.eMBInit) refers to mbrtu.o(i.xMBRTUTransmitFSM) for xMBRTUTransmitFSM
    mb.o(i.eMBInit) refers to mbrtu.o(i.xMBRTUTimerT35Expired) for xMBRTUTimerT35Expired
    mb.o(i.eMBPoll) refers to portevent.o(i.xMBPortEventGet) for xMBPortEventGet
    mb.o(i.eMBPoll) refers to portevent.o(i.xMBPortEventPost) for xMBPortEventPost
    mb.o(i.eMBPoll) refers to port.o(i.xMBOutput) for xMBOutput
    mb.o(i.eMBPoll) refers to mb.o(.data) for eMBState
    mb.o(i.eMBRegisterCB) refers to port.o(i.EnterCriticalSection) for EnterCriticalSection
    mb.o(i.eMBRegisterCB) refers to port.o(i.ExitCriticalSection) for ExitCriticalSection
    mb.o(i.eMBRegisterCB) refers to mb.o(.data) for xFuncHandlers
    mb.o(.data) refers to mbfuncother.o(i.eMBFuncReportSlaveID) for eMBFuncReportSlaveID
    mb.o(.data) refers to mbfuncinput.o(i.eMBFuncReadInputRegister) for eMBFuncReadInputRegister
    mb.o(.data) refers to mbfunchistory.o(i.eMBFuncReadHistoryRegister) for eMBFuncReadHistoryRegister
    mb.o(.data) refers to mbfuncrealdata.o(i.eMBFuncReadRealDataRegister) for eMBFuncReadRealDataRegister
    mb.o(.data) refers to mbfuncholding.o(i.eMBFuncReadHoldingRegister) for eMBFuncReadHoldingRegister
    mb.o(.data) refers to mbfuncholding.o(i.eMBFuncWriteMultipleHoldingRegister) for eMBFuncWriteMultipleHoldingRegister
    mb.o(.data) refers to mbfuncholding.o(i.eMBFuncWriteHoldingRegister) for eMBFuncWriteHoldingRegister
    mb.o(.data) refers to mbfuncholding.o(i.eMBFuncReadWriteMultipleHoldingRegister) for eMBFuncReadWriteMultipleHoldingRegister
    mb.o(.data) refers to mbfunccoils.o(i.eMBFuncReadCoils) for eMBFuncReadCoils
    mb.o(.data) refers to mbfunccoils.o(i.eMBFuncWriteCoil) for eMBFuncWriteCoil
    mb.o(.data) refers to mbfunccoils.o(i.eMBFuncWriteMultipleCoils) for eMBFuncWriteMultipleCoils
    mb.o(.data) refers to mbfuncdisc.o(i.eMBFuncReadDiscreteInputs) for eMBFuncReadDiscreteInputs
    portevent.o(i.xMBPortEventGet) refers to portevent.o(.data) for xEventInQueue
    portevent.o(i.xMBPortEventInit) refers to portevent.o(.data) for xEventInQueue
    portevent.o(i.xMBPortEventPost) refers to portevent.o(.data) for xEventInQueue
    mbfunccoils.o(i.eMBFuncReadCoils) refers to freemodbus.o(i.eMBRegCoilsCB) for eMBRegCoilsCB
    mbfunccoils.o(i.eMBFuncReadCoils) refers to mbutils.o(i.prveMBError2Exception) for prveMBError2Exception
    mbfunccoils.o(i.eMBFuncWriteCoil) refers to freemodbus.o(i.eMBRegCoilsCB) for eMBRegCoilsCB
    mbfunccoils.o(i.eMBFuncWriteCoil) refers to mbutils.o(i.prveMBError2Exception) for prveMBError2Exception
    mbfunccoils.o(i.eMBFuncWriteMultipleCoils) refers to freemodbus.o(i.eMBRegCoilsCB) for eMBRegCoilsCB
    mbfunccoils.o(i.eMBFuncWriteMultipleCoils) refers to mbutils.o(i.prveMBError2Exception) for prveMBError2Exception
    mbfuncdisc.o(i.eMBFuncReadDiscreteInputs) refers to freemodbus.o(i.eMBRegDiscreteCB) for eMBRegDiscreteCB
    mbfuncdisc.o(i.eMBFuncReadDiscreteInputs) refers to mbutils.o(i.prveMBError2Exception) for prveMBError2Exception
    mbfuncholding.o(i.eMBFuncReadHoldingRegister) refers to freemodbus.o(i.eMBRegHoldingCB) for eMBRegHoldingCB
    mbfuncholding.o(i.eMBFuncReadHoldingRegister) refers to mbutils.o(i.prveMBError2Exception) for prveMBError2Exception
    mbfuncholding.o(i.eMBFuncReadWriteMultipleHoldingRegister) refers to freemodbus.o(i.eMBRegHoldingCB) for eMBRegHoldingCB
    mbfuncholding.o(i.eMBFuncReadWriteMultipleHoldingRegister) refers to mbutils.o(i.prveMBError2Exception) for prveMBError2Exception
    mbfuncholding.o(i.eMBFuncWriteHoldingRegister) refers to freemodbus.o(i.eMBRegHoldingCB) for eMBRegHoldingCB
    mbfuncholding.o(i.eMBFuncWriteHoldingRegister) refers to mbutils.o(i.prveMBError2Exception) for prveMBError2Exception
    mbfuncholding.o(i.eMBFuncWriteMultipleHoldingRegister) refers to freemodbus.o(i.eMBRegHoldingCB) for eMBRegHoldingCB
    mbfuncholding.o(i.eMBFuncWriteMultipleHoldingRegister) refers to mbutils.o(i.prveMBError2Exception) for prveMBError2Exception
    mbfuncinput.o(i.eMBFuncReadInputRegister) refers to freemodbus.o(i.eMBRegInputCB) for eMBRegInputCB
    mbfuncinput.o(i.eMBFuncReadInputRegister) refers to mbutils.o(i.prveMBError2Exception) for prveMBError2Exception
    mbfunchistory.o(i.eMBFuncReadHistoryRegister) refers to freemodbus.o(i.eMBRegHistoryCB) for eMBRegHistoryCB
    mbfunchistory.o(i.eMBFuncReadHistoryRegister) refers to mbutils.o(i.prveMBError2Exception) for prveMBError2Exception
    mbfuncrealdata.o(i.eMBFuncReadRealDataRegister) refers to freemodbus.o(i.eMBRegRealDataCB) for eMBRegRealDataCB
    mbfuncrealdata.o(i.eMBFuncReadRealDataRegister) refers to mbutils.o(i.prveMBError2Exception) for prveMBError2Exception
    mbfuncother.o(i.eMBFuncReportSlaveID) refers to memcpya.o(.text) for __aeabi_memcpy
    mbfuncother.o(i.eMBFuncReportSlaveID) refers to mbfuncother.o(.data) for usMBSlaveIDLen
    mbfuncother.o(i.eMBFuncReportSlaveID) refers to mbfuncother.o(.bss) for ucMBSlaveID
    mbfuncother.o(i.eMBSetSlaveID) refers to memcpya.o(.text) for __aeabi_memcpy
    mbfuncother.o(i.eMBSetSlaveID) refers to mbfuncother.o(.data) for usMBSlaveIDLen
    mbfuncother.o(i.eMBSetSlaveID) refers to mbfuncother.o(.bss) for ucMBSlaveID
    mbrtu.o(i.eMBRTUInit) refers to port.o(i.EnterCriticalSection) for EnterCriticalSection
    mbrtu.o(i.eMBRTUInit) refers to portserial.o(i.xMBPortSerialInit) for xMBPortSerialInit
    mbrtu.o(i.eMBRTUInit) refers to porttimer.o(i.xMBPortTimersInit) for xMBPortTimersInit
    mbrtu.o(i.eMBRTUInit) refers to port.o(i.ExitCriticalSection) for ExitCriticalSection
    mbrtu.o(i.eMBRTUReceive) refers to port.o(i.EnterCriticalSection) for EnterCriticalSection
    mbrtu.o(i.eMBRTUReceive) refers to mbcrc.o(i.usMBCRC16) for usMBCRC16
    mbrtu.o(i.eMBRTUReceive) refers to port.o(i.xMBOutput) for xMBOutput
    mbrtu.o(i.eMBRTUReceive) refers to port.o(i.ExitCriticalSection) for ExitCriticalSection
    mbrtu.o(i.eMBRTUReceive) refers to mbrtu.o(.data) for usRcvBufferPos
    mbrtu.o(i.eMBRTUReceive) refers to mbrtu.o(.bss) for ucRTUBuf
    mbrtu.o(i.eMBRTUSend) refers to port.o(i.EnterCriticalSection) for EnterCriticalSection
    mbrtu.o(i.eMBRTUSend) refers to mbcrc.o(i.usMBCRC16) for usMBCRC16
    mbrtu.o(i.eMBRTUSend) refers to portserial.o(i.xMBPortSerialPutByte) for xMBPortSerialPutByte
    mbrtu.o(i.eMBRTUSend) refers to portserial.o(i.vMBPortSerialEnable) for vMBPortSerialEnable
    mbrtu.o(i.eMBRTUSend) refers to port.o(i.ExitCriticalSection) for ExitCriticalSection
    mbrtu.o(i.eMBRTUSend) refers to mbrtu.o(.data) for eRcvState
    mbrtu.o(i.eMBRTUSend) refers to mbrtu.o(.bss) for ucRTUBuf
    mbrtu.o(i.eMBRTUStart) refers to port.o(i.EnterCriticalSection) for EnterCriticalSection
    mbrtu.o(i.eMBRTUStart) refers to portserial.o(i.vMBPortSerialEnable) for vMBPortSerialEnable
    mbrtu.o(i.eMBRTUStart) refers to porttimer.o(i.vMBPortTimersEnable) for vMBPortTimersEnable
    mbrtu.o(i.eMBRTUStart) refers to port.o(i.ExitCriticalSection) for ExitCriticalSection
    mbrtu.o(i.eMBRTUStart) refers to mbrtu.o(.data) for eRcvState
    mbrtu.o(i.eMBRTUStop) refers to port.o(i.EnterCriticalSection) for EnterCriticalSection
    mbrtu.o(i.eMBRTUStop) refers to portserial.o(i.vMBPortSerialEnable) for vMBPortSerialEnable
    mbrtu.o(i.eMBRTUStop) refers to porttimer.o(i.vMBPortTimersDisable) for vMBPortTimersDisable
    mbrtu.o(i.eMBRTUStop) refers to port.o(i.ExitCriticalSection) for ExitCriticalSection
    mbrtu.o(i.xMBRTUReceiveFSM) refers to portserial.o(i.xMBPortSerialGetByte) for xMBPortSerialGetByte
    mbrtu.o(i.xMBRTUReceiveFSM) refers to porttimer.o(i.vMBPortTimersEnable) for vMBPortTimersEnable
    mbrtu.o(i.xMBRTUReceiveFSM) refers to mbrtu.o(.data) for eRcvState
    mbrtu.o(i.xMBRTUReceiveFSM) refers to mbrtu.o(.bss) for ucRTUBuf
    mbrtu.o(i.xMBRTUTimerT35Expired) refers to portevent.o(i.xMBPortEventPost) for xMBPortEventPost
    mbrtu.o(i.xMBRTUTimerT35Expired) refers to porttimer.o(i.vMBPortTimersDisable) for vMBPortTimersDisable
    mbrtu.o(i.xMBRTUTimerT35Expired) refers to mbrtu.o(.data) for eRcvState
    mbrtu.o(i.xMBRTUTransmitFSM) refers to portserial.o(i.vMBPortSerialEnable) for vMBPortSerialEnable
    mbrtu.o(i.xMBRTUTransmitFSM) refers to portserial.o(i.xMBPortSerialPutByte) for xMBPortSerialPutByte
    mbrtu.o(i.xMBRTUTransmitFSM) refers to portevent.o(i.xMBPortEventPost) for xMBPortEventPost
    mbrtu.o(i.xMBRTUTransmitFSM) refers to mbrtu.o(.data) for eSndState
    portserial.o(i.USART3_IRQHandler) refers to portserial.o(i.prvvUARTRxISR) for prvvUARTRxISR
    portserial.o(i.USART3_IRQHandler) refers to portserial.o(i.prvvUARTTxReadyISR) for prvvUARTTxReadyISR
    portserial.o(i.USART3_IRQHandler) refers to stm32l1xx_hal_uart.o(i.HAL_UART_ErrorCallback) for HAL_UART_ErrorCallback
    portserial.o(i.USART3_IRQHandler) refers to portserial.o(.bss) for UartHandle
    portserial.o(i.prvvUARTRxISR) refers to mb.o(.data) for pxMBFrameCBByteReceived
    portserial.o(i.prvvUARTTxReadyISR) refers to mb.o(.data) for pxMBFrameCBTransmitterEmpty
    portserial.o(i.vMBPortSerialEnable) refers to stm32l1xx_hal_uart.o(i.HAL_UART_Receive_IT) for HAL_UART_Receive_IT
    portserial.o(i.vMBPortSerialEnable) refers to stm32l1xx_hal_uart.o(i.HAL_UART_Receive_End) for HAL_UART_Receive_End
    portserial.o(i.vMBPortSerialEnable) refers to portserial.o(.bss) for UartHandle
    portserial.o(i.xMBPortSerialGetByte) refers to portserial.o(.bss) for UartHandle
    portserial.o(i.xMBPortSerialInit) refers to stm32l1xx_hal_uart.o(i.HAL_UART_Init) for HAL_UART_Init
    portserial.o(i.xMBPortSerialInit) refers to freemodbus.o(i.Error_Handler) for Error_Handler
    portserial.o(i.xMBPortSerialInit) refers to portserial.o(.bss) for UartHandle
    portserial.o(i.xMBPortSerialPutByte) refers to portserial.o(.bss) for UartHandle
    porttimer.o(i.HAL_TIM_PeriodElapsedCallback) refers to porttimer.o(i.prvvTIMERExpiredISR) for prvvTIMERExpiredISR
    porttimer.o(i.TIM3_IRQHandler) refers to stm32l1xx_hal_tim.o(i.HAL_TIM_IRQHandler) for HAL_TIM_IRQHandler
    porttimer.o(i.TIM3_IRQHandler) refers to porttimer.o(.bss) for TimHandle
    porttimer.o(i.prvvTIMERExpiredISR) refers to mb.o(.data) for pxMBPortCBTimerExpired
    porttimer.o(i.prvvTIMERISR) refers to porttimer.o(i.prvvTIMERExpiredISR) for prvvTIMERExpiredISR
    porttimer.o(i.vMBPortTimersDisable) refers to stm32l1xx_hal_tim.o(i.HAL_TIM_Base_Stop_IT) for HAL_TIM_Base_Stop_IT
    porttimer.o(i.vMBPortTimersDisable) refers to freemodbus.o(i.Error_Handler) for Error_Handler
    porttimer.o(i.vMBPortTimersDisable) refers to porttimer.o(.bss) for TimHandle
    porttimer.o(i.vMBPortTimersEnable) refers to stm32l1xx_hal_tim.o(i.HAL_TIM_Base_Stop_IT) for HAL_TIM_Base_Stop_IT
    porttimer.o(i.vMBPortTimersEnable) refers to freemodbus.o(i.Error_Handler) for Error_Handler
    porttimer.o(i.vMBPortTimersEnable) refers to stm32l1xx_hal_tim.o(i.HAL_TIM_Base_Start_IT) for HAL_TIM_Base_Start_IT
    porttimer.o(i.vMBPortTimersEnable) refers to porttimer.o(.bss) for TimHandle
    porttimer.o(i.xMBPortTimersInit) refers to stm32l1xx_hal_tim.o(i.HAL_TIM_Base_Init) for HAL_TIM_Base_Init
    porttimer.o(i.xMBPortTimersInit) refers to freemodbus.o(i.Error_Handler) for Error_Handler
    porttimer.o(i.xMBPortTimersInit) refers to stm32l1xx_hal_tim.o(i.HAL_TIM_Base_Start_IT) for HAL_TIM_Base_Start_IT
    porttimer.o(i.xMBPortTimersInit) refers to system_stm32l1xx.o(.data) for SystemCoreClock
    porttimer.o(i.xMBPortTimersInit) refers to porttimer.o(.data) for uwPrescalerValue
    porttimer.o(i.xMBPortTimersInit) refers to porttimer.o(.bss) for TimHandle
    mbcrc.o(i.usMBCRC16) refers to mbcrc.o(.constdata) for aucCRCHi
    stm32l1xx_hal_tim.o(i.HAL_TIM_Base_DeInit) refers to stm32l1xx_hal_tim.o(i.HAL_TIM_Base_MspDeInit) for HAL_TIM_Base_MspDeInit
    stm32l1xx_hal_tim.o(i.HAL_TIM_Base_Init) refers to stm32l1xx_hal_msp.o(i.HAL_TIM_Base_MspInit) for HAL_TIM_Base_MspInit
    stm32l1xx_hal_tim.o(i.HAL_TIM_Base_Init) refers to stm32l1xx_hal_tim.o(i.TIM_Base_SetConfig) for TIM_Base_SetConfig
    stm32l1xx_hal_tim.o(i.HAL_TIM_Base_Start_DMA) refers to stm32l1xx_hal_dma.o(i.HAL_DMA_Start_IT) for HAL_DMA_Start_IT
    stm32l1xx_hal_tim.o(i.HAL_TIM_Base_Start_DMA) refers to stm32l1xx_hal_tim.o(i.TIM_DMAPeriodElapsedCplt) for TIM_DMAPeriodElapsedCplt
    stm32l1xx_hal_tim.o(i.HAL_TIM_Base_Start_DMA) refers to stm32l1xx_hal_tim.o(i.TIM_DMAError) for TIM_DMAError
    stm32l1xx_hal_tim.o(i.HAL_TIM_ConfigClockSource) refers to stm32l1xx_hal_tim.o(i.TIM_ETR_SetConfig) for TIM_ETR_SetConfig
    stm32l1xx_hal_tim.o(i.HAL_TIM_ConfigClockSource) refers to stm32l1xx_hal_tim.o(i.TIM_TI1_ConfigInputStage) for TIM_TI1_ConfigInputStage
    stm32l1xx_hal_tim.o(i.HAL_TIM_ConfigClockSource) refers to stm32l1xx_hal_tim.o(i.TIM_ITRx_SetConfig) for TIM_ITRx_SetConfig
    stm32l1xx_hal_tim.o(i.HAL_TIM_ConfigClockSource) refers to stm32l1xx_hal_tim.o(i.TIM_TI2_ConfigInputStage) for TIM_TI2_ConfigInputStage
    stm32l1xx_hal_tim.o(i.HAL_TIM_ConfigOCrefClear) refers to stm32l1xx_hal_tim.o(i.TIM_ETR_SetConfig) for TIM_ETR_SetConfig
    stm32l1xx_hal_tim.o(i.HAL_TIM_DMABurst_ReadStart) refers to stm32l1xx_hal_dma.o(i.HAL_DMA_Start_IT) for HAL_DMA_Start_IT
    stm32l1xx_hal_tim.o(i.HAL_TIM_DMABurst_ReadStart) refers to stm32l1xx_hal_tim.o(i.TIM_DMAPeriodElapsedCplt) for TIM_DMAPeriodElapsedCplt
    stm32l1xx_hal_tim.o(i.HAL_TIM_DMABurst_ReadStart) refers to stm32l1xx_hal_tim.o(i.TIM_DMAError) for TIM_DMAError
    stm32l1xx_hal_tim.o(i.HAL_TIM_DMABurst_ReadStart) refers to stm32l1xx_hal_tim.o(i.TIM_DMACaptureCplt) for TIM_DMACaptureCplt
    stm32l1xx_hal_tim.o(i.HAL_TIM_DMABurst_ReadStart) refers to stm32l1xx_hal_tim.o(i.TIM_DMATriggerCplt) for TIM_DMATriggerCplt
    stm32l1xx_hal_tim.o(i.HAL_TIM_DMABurst_ReadStop) refers to stm32l1xx_hal_dma.o(i.HAL_DMA_Abort) for HAL_DMA_Abort
    stm32l1xx_hal_tim.o(i.HAL_TIM_DMABurst_WriteStart) refers to stm32l1xx_hal_dma.o(i.HAL_DMA_Start_IT) for HAL_DMA_Start_IT
    stm32l1xx_hal_tim.o(i.HAL_TIM_DMABurst_WriteStart) refers to stm32l1xx_hal_tim.o(i.TIM_DMAPeriodElapsedCplt) for TIM_DMAPeriodElapsedCplt
    stm32l1xx_hal_tim.o(i.HAL_TIM_DMABurst_WriteStart) refers to stm32l1xx_hal_tim.o(i.TIM_DMAError) for TIM_DMAError
    stm32l1xx_hal_tim.o(i.HAL_TIM_DMABurst_WriteStart) refers to stm32l1xx_hal_tim.o(i.TIM_DMADelayPulseCplt) for TIM_DMADelayPulseCplt
    stm32l1xx_hal_tim.o(i.HAL_TIM_DMABurst_WriteStart) refers to stm32l1xx_hal_tim.o(i.TIM_DMATriggerCplt) for TIM_DMATriggerCplt
    stm32l1xx_hal_tim.o(i.HAL_TIM_DMABurst_WriteStop) refers to stm32l1xx_hal_dma.o(i.HAL_DMA_Abort) for HAL_DMA_Abort
    stm32l1xx_hal_tim.o(i.HAL_TIM_Encoder_DeInit) refers to stm32l1xx_hal_tim.o(i.HAL_TIM_Encoder_MspDeInit) for HAL_TIM_Encoder_MspDeInit
    stm32l1xx_hal_tim.o(i.HAL_TIM_Encoder_Init) refers to stm32l1xx_hal_tim.o(i.HAL_TIM_Encoder_MspInit) for HAL_TIM_Encoder_MspInit
    stm32l1xx_hal_tim.o(i.HAL_TIM_Encoder_Init) refers to stm32l1xx_hal_tim.o(i.TIM_Base_SetConfig) for TIM_Base_SetConfig
    stm32l1xx_hal_tim.o(i.HAL_TIM_Encoder_Start) refers to stm32l1xx_hal_tim.o(i.TIM_CCxChannelCmd) for TIM_CCxChannelCmd
    stm32l1xx_hal_tim.o(i.HAL_TIM_Encoder_Start_DMA) refers to stm32l1xx_hal_dma.o(i.HAL_DMA_Start_IT) for HAL_DMA_Start_IT
    stm32l1xx_hal_tim.o(i.HAL_TIM_Encoder_Start_DMA) refers to stm32l1xx_hal_tim.o(i.TIM_CCxChannelCmd) for TIM_CCxChannelCmd
    stm32l1xx_hal_tim.o(i.HAL_TIM_Encoder_Start_DMA) refers to stm32l1xx_hal_tim.o(i.TIM_DMACaptureCplt) for TIM_DMACaptureCplt
    stm32l1xx_hal_tim.o(i.HAL_TIM_Encoder_Start_DMA) refers to stm32l1xx_hal_tim.o(i.TIM_DMAError) for TIM_DMAError
    stm32l1xx_hal_tim.o(i.HAL_TIM_Encoder_Start_IT) refers to stm32l1xx_hal_tim.o(i.TIM_CCxChannelCmd) for TIM_CCxChannelCmd
    stm32l1xx_hal_tim.o(i.HAL_TIM_Encoder_Stop) refers to stm32l1xx_hal_tim.o(i.TIM_CCxChannelCmd) for TIM_CCxChannelCmd
    stm32l1xx_hal_tim.o(i.HAL_TIM_Encoder_Stop_DMA) refers to stm32l1xx_hal_tim.o(i.TIM_CCxChannelCmd) for TIM_CCxChannelCmd
    stm32l1xx_hal_tim.o(i.HAL_TIM_Encoder_Stop_IT) refers to stm32l1xx_hal_tim.o(i.TIM_CCxChannelCmd) for TIM_CCxChannelCmd
    stm32l1xx_hal_tim.o(i.HAL_TIM_IC_ConfigChannel) refers to stm32l1xx_hal_tim.o(i.TIM_TI1_SetConfig) for TIM_TI1_SetConfig
    stm32l1xx_hal_tim.o(i.HAL_TIM_IC_ConfigChannel) refers to stm32l1xx_hal_tim.o(i.TIM_TI2_SetConfig) for TIM_TI2_SetConfig
    stm32l1xx_hal_tim.o(i.HAL_TIM_IC_ConfigChannel) refers to stm32l1xx_hal_tim.o(i.TIM_TI3_SetConfig) for TIM_TI3_SetConfig
    stm32l1xx_hal_tim.o(i.HAL_TIM_IC_ConfigChannel) refers to stm32l1xx_hal_tim.o(i.TIM_TI4_SetConfig) for TIM_TI4_SetConfig
    stm32l1xx_hal_tim.o(i.HAL_TIM_IC_DeInit) refers to stm32l1xx_hal_tim.o(i.HAL_TIM_IC_MspDeInit) for HAL_TIM_IC_MspDeInit
    stm32l1xx_hal_tim.o(i.HAL_TIM_IC_Init) refers to stm32l1xx_hal_tim.o(i.HAL_TIM_IC_MspInit) for HAL_TIM_IC_MspInit
    stm32l1xx_hal_tim.o(i.HAL_TIM_IC_Init) refers to stm32l1xx_hal_tim.o(i.TIM_Base_SetConfig) for TIM_Base_SetConfig
    stm32l1xx_hal_tim.o(i.HAL_TIM_IC_Start) refers to stm32l1xx_hal_tim.o(i.TIM_CCxChannelCmd) for TIM_CCxChannelCmd
    stm32l1xx_hal_tim.o(i.HAL_TIM_IC_Start_DMA) refers to stm32l1xx_hal_dma.o(i.HAL_DMA_Start_IT) for HAL_DMA_Start_IT
    stm32l1xx_hal_tim.o(i.HAL_TIM_IC_Start_DMA) refers to stm32l1xx_hal_tim.o(i.TIM_CCxChannelCmd) for TIM_CCxChannelCmd
    stm32l1xx_hal_tim.o(i.HAL_TIM_IC_Start_DMA) refers to stm32l1xx_hal_tim.o(i.TIM_DMACaptureCplt) for TIM_DMACaptureCplt
    stm32l1xx_hal_tim.o(i.HAL_TIM_IC_Start_DMA) refers to stm32l1xx_hal_tim.o(i.TIM_DMAError) for TIM_DMAError
    stm32l1xx_hal_tim.o(i.HAL_TIM_IC_Start_IT) refers to stm32l1xx_hal_tim.o(i.TIM_CCxChannelCmd) for TIM_CCxChannelCmd
    stm32l1xx_hal_tim.o(i.HAL_TIM_IC_Stop) refers to stm32l1xx_hal_tim.o(i.TIM_CCxChannelCmd) for TIM_CCxChannelCmd
    stm32l1xx_hal_tim.o(i.HAL_TIM_IC_Stop_DMA) refers to stm32l1xx_hal_tim.o(i.TIM_CCxChannelCmd) for TIM_CCxChannelCmd
    stm32l1xx_hal_tim.o(i.HAL_TIM_IC_Stop_IT) refers to stm32l1xx_hal_tim.o(i.TIM_CCxChannelCmd) for TIM_CCxChannelCmd
    stm32l1xx_hal_tim.o(i.HAL_TIM_IRQHandler) refers to stm32l1xx_hal_tim.o(i.HAL_TIM_IC_CaptureCallback) for HAL_TIM_IC_CaptureCallback
    stm32l1xx_hal_tim.o(i.HAL_TIM_IRQHandler) refers to stm32l1xx_hal_tim.o(i.HAL_TIM_OC_DelayElapsedCallback) for HAL_TIM_OC_DelayElapsedCallback
    stm32l1xx_hal_tim.o(i.HAL_TIM_IRQHandler) refers to stm32l1xx_hal_tim.o(i.HAL_TIM_PWM_PulseFinishedCallback) for HAL_TIM_PWM_PulseFinishedCallback
    stm32l1xx_hal_tim.o(i.HAL_TIM_IRQHandler) refers to porttimer.o(i.HAL_TIM_PeriodElapsedCallback) for HAL_TIM_PeriodElapsedCallback
    stm32l1xx_hal_tim.o(i.HAL_TIM_IRQHandler) refers to stm32l1xx_hal_tim.o(i.HAL_TIM_TriggerCallback) for HAL_TIM_TriggerCallback
    stm32l1xx_hal_tim.o(i.HAL_TIM_OC_ConfigChannel) refers to stm32l1xx_hal_tim.o(i.TIM_OC1_SetConfig) for TIM_OC1_SetConfig
    stm32l1xx_hal_tim.o(i.HAL_TIM_OC_ConfigChannel) refers to stm32l1xx_hal_tim.o(i.TIM_OC2_SetConfig) for TIM_OC2_SetConfig
    stm32l1xx_hal_tim.o(i.HAL_TIM_OC_ConfigChannel) refers to stm32l1xx_hal_tim.o(i.TIM_OC3_SetConfig) for TIM_OC3_SetConfig
    stm32l1xx_hal_tim.o(i.HAL_TIM_OC_ConfigChannel) refers to stm32l1xx_hal_tim.o(i.TIM_OC4_SetConfig) for TIM_OC4_SetConfig
    stm32l1xx_hal_tim.o(i.HAL_TIM_OC_DeInit) refers to stm32l1xx_hal_tim.o(i.HAL_TIM_OC_MspDeInit) for HAL_TIM_OC_MspDeInit
    stm32l1xx_hal_tim.o(i.HAL_TIM_OC_Init) refers to stm32l1xx_hal_tim.o(i.HAL_TIM_OC_MspInit) for HAL_TIM_OC_MspInit
    stm32l1xx_hal_tim.o(i.HAL_TIM_OC_Init) refers to stm32l1xx_hal_tim.o(i.TIM_Base_SetConfig) for TIM_Base_SetConfig
    stm32l1xx_hal_tim.o(i.HAL_TIM_OC_Start) refers to stm32l1xx_hal_tim.o(i.TIM_CCxChannelCmd) for TIM_CCxChannelCmd
    stm32l1xx_hal_tim.o(i.HAL_TIM_OC_Start_DMA) refers to stm32l1xx_hal_dma.o(i.HAL_DMA_Start_IT) for HAL_DMA_Start_IT
    stm32l1xx_hal_tim.o(i.HAL_TIM_OC_Start_DMA) refers to stm32l1xx_hal_tim.o(i.TIM_CCxChannelCmd) for TIM_CCxChannelCmd
    stm32l1xx_hal_tim.o(i.HAL_TIM_OC_Start_DMA) refers to stm32l1xx_hal_tim.o(i.TIM_DMADelayPulseCplt) for TIM_DMADelayPulseCplt
    stm32l1xx_hal_tim.o(i.HAL_TIM_OC_Start_DMA) refers to stm32l1xx_hal_tim.o(i.TIM_DMAError) for TIM_DMAError
    stm32l1xx_hal_tim.o(i.HAL_TIM_OC_Start_IT) refers to stm32l1xx_hal_tim.o(i.TIM_CCxChannelCmd) for TIM_CCxChannelCmd
    stm32l1xx_hal_tim.o(i.HAL_TIM_OC_Stop) refers to stm32l1xx_hal_tim.o(i.TIM_CCxChannelCmd) for TIM_CCxChannelCmd
    stm32l1xx_hal_tim.o(i.HAL_TIM_OC_Stop_DMA) refers to stm32l1xx_hal_tim.o(i.TIM_CCxChannelCmd) for TIM_CCxChannelCmd
    stm32l1xx_hal_tim.o(i.HAL_TIM_OC_Stop_IT) refers to stm32l1xx_hal_tim.o(i.TIM_CCxChannelCmd) for TIM_CCxChannelCmd
    stm32l1xx_hal_tim.o(i.HAL_TIM_OnePulse_ConfigChannel) refers to stm32l1xx_hal_tim.o(i.TIM_OC1_SetConfig) for TIM_OC1_SetConfig
    stm32l1xx_hal_tim.o(i.HAL_TIM_OnePulse_ConfigChannel) refers to stm32l1xx_hal_tim.o(i.TIM_OC2_SetConfig) for TIM_OC2_SetConfig
    stm32l1xx_hal_tim.o(i.HAL_TIM_OnePulse_ConfigChannel) refers to stm32l1xx_hal_tim.o(i.TIM_TI1_SetConfig) for TIM_TI1_SetConfig
    stm32l1xx_hal_tim.o(i.HAL_TIM_OnePulse_ConfigChannel) refers to stm32l1xx_hal_tim.o(i.TIM_TI2_SetConfig) for TIM_TI2_SetConfig
    stm32l1xx_hal_tim.o(i.HAL_TIM_OnePulse_DeInit) refers to stm32l1xx_hal_tim.o(i.HAL_TIM_OnePulse_MspDeInit) for HAL_TIM_OnePulse_MspDeInit
    stm32l1xx_hal_tim.o(i.HAL_TIM_OnePulse_Init) refers to stm32l1xx_hal_tim.o(i.HAL_TIM_OnePulse_MspInit) for HAL_TIM_OnePulse_MspInit
    stm32l1xx_hal_tim.o(i.HAL_TIM_OnePulse_Init) refers to stm32l1xx_hal_tim.o(i.TIM_Base_SetConfig) for TIM_Base_SetConfig
    stm32l1xx_hal_tim.o(i.HAL_TIM_OnePulse_Start) refers to stm32l1xx_hal_tim.o(i.TIM_CCxChannelCmd) for TIM_CCxChannelCmd
    stm32l1xx_hal_tim.o(i.HAL_TIM_OnePulse_Start_IT) refers to stm32l1xx_hal_tim.o(i.TIM_CCxChannelCmd) for TIM_CCxChannelCmd
    stm32l1xx_hal_tim.o(i.HAL_TIM_OnePulse_Stop) refers to stm32l1xx_hal_tim.o(i.TIM_CCxChannelCmd) for TIM_CCxChannelCmd
    stm32l1xx_hal_tim.o(i.HAL_TIM_OnePulse_Stop_IT) refers to stm32l1xx_hal_tim.o(i.TIM_CCxChannelCmd) for TIM_CCxChannelCmd
    stm32l1xx_hal_tim.o(i.HAL_TIM_PWM_ConfigChannel) refers to stm32l1xx_hal_tim.o(i.TIM_OC1_SetConfig) for TIM_OC1_SetConfig
    stm32l1xx_hal_tim.o(i.HAL_TIM_PWM_ConfigChannel) refers to stm32l1xx_hal_tim.o(i.TIM_OC2_SetConfig) for TIM_OC2_SetConfig
    stm32l1xx_hal_tim.o(i.HAL_TIM_PWM_ConfigChannel) refers to stm32l1xx_hal_tim.o(i.TIM_OC3_SetConfig) for TIM_OC3_SetConfig
    stm32l1xx_hal_tim.o(i.HAL_TIM_PWM_ConfigChannel) refers to stm32l1xx_hal_tim.o(i.TIM_OC4_SetConfig) for TIM_OC4_SetConfig
    stm32l1xx_hal_tim.o(i.HAL_TIM_PWM_DeInit) refers to stm32l1xx_hal_tim.o(i.HAL_TIM_PWM_MspDeInit) for HAL_TIM_PWM_MspDeInit
    stm32l1xx_hal_tim.o(i.HAL_TIM_PWM_Init) refers to stm32l1xx_hal_tim.o(i.HAL_TIM_PWM_MspInit) for HAL_TIM_PWM_MspInit
    stm32l1xx_hal_tim.o(i.HAL_TIM_PWM_Init) refers to stm32l1xx_hal_tim.o(i.TIM_Base_SetConfig) for TIM_Base_SetConfig
    stm32l1xx_hal_tim.o(i.HAL_TIM_PWM_Start) refers to stm32l1xx_hal_tim.o(i.TIM_CCxChannelCmd) for TIM_CCxChannelCmd
    stm32l1xx_hal_tim.o(i.HAL_TIM_PWM_Start_DMA) refers to stm32l1xx_hal_dma.o(i.HAL_DMA_Start_IT) for HAL_DMA_Start_IT
    stm32l1xx_hal_tim.o(i.HAL_TIM_PWM_Start_DMA) refers to stm32l1xx_hal_tim.o(i.TIM_CCxChannelCmd) for TIM_CCxChannelCmd
    stm32l1xx_hal_tim.o(i.HAL_TIM_PWM_Start_DMA) refers to stm32l1xx_hal_tim.o(i.TIM_DMADelayPulseCplt) for TIM_DMADelayPulseCplt
    stm32l1xx_hal_tim.o(i.HAL_TIM_PWM_Start_DMA) refers to stm32l1xx_hal_tim.o(i.TIM_DMAError) for TIM_DMAError
    stm32l1xx_hal_tim.o(i.HAL_TIM_PWM_Start_IT) refers to stm32l1xx_hal_tim.o(i.TIM_CCxChannelCmd) for TIM_CCxChannelCmd
    stm32l1xx_hal_tim.o(i.HAL_TIM_PWM_Stop) refers to stm32l1xx_hal_tim.o(i.TIM_CCxChannelCmd) for TIM_CCxChannelCmd
    stm32l1xx_hal_tim.o(i.HAL_TIM_PWM_Stop_DMA) refers to stm32l1xx_hal_tim.o(i.TIM_CCxChannelCmd) for TIM_CCxChannelCmd
    stm32l1xx_hal_tim.o(i.HAL_TIM_PWM_Stop_IT) refers to stm32l1xx_hal_tim.o(i.TIM_CCxChannelCmd) for TIM_CCxChannelCmd
    stm32l1xx_hal_tim.o(i.HAL_TIM_SlaveConfigSynchronization) refers to stm32l1xx_hal_tim.o(i.TIM_SlaveTimer_SetConfig) for TIM_SlaveTimer_SetConfig
    stm32l1xx_hal_tim.o(i.HAL_TIM_SlaveConfigSynchronization_IT) refers to stm32l1xx_hal_tim.o(i.TIM_SlaveTimer_SetConfig) for TIM_SlaveTimer_SetConfig
    stm32l1xx_hal_tim.o(i.TIM_DMACaptureCplt) refers to stm32l1xx_hal_tim.o(i.HAL_TIM_IC_CaptureCallback) for HAL_TIM_IC_CaptureCallback
    stm32l1xx_hal_tim.o(i.TIM_DMADelayPulseCplt) refers to stm32l1xx_hal_tim.o(i.HAL_TIM_PWM_PulseFinishedCallback) for HAL_TIM_PWM_PulseFinishedCallback
    stm32l1xx_hal_tim.o(i.TIM_DMAError) refers to stm32l1xx_hal_tim.o(i.HAL_TIM_ErrorCallback) for HAL_TIM_ErrorCallback
    stm32l1xx_hal_tim.o(i.TIM_DMAPeriodElapsedCplt) refers to porttimer.o(i.HAL_TIM_PeriodElapsedCallback) for HAL_TIM_PeriodElapsedCallback
    stm32l1xx_hal_tim.o(i.TIM_DMATriggerCplt) refers to stm32l1xx_hal_tim.o(i.HAL_TIM_TriggerCallback) for HAL_TIM_TriggerCallback
    stm32l1xx_hal_tim.o(i.TIM_SlaveTimer_SetConfig) refers to stm32l1xx_hal_tim.o(i.TIM_ETR_SetConfig) for TIM_ETR_SetConfig
    stm32l1xx_hal_tim.o(i.TIM_SlaveTimer_SetConfig) refers to stm32l1xx_hal_tim.o(i.TIM_TI1_ConfigInputStage) for TIM_TI1_ConfigInputStage
    stm32l1xx_hal_tim.o(i.TIM_SlaveTimer_SetConfig) refers to stm32l1xx_hal_tim.o(i.TIM_TI2_ConfigInputStage) for TIM_TI2_ConfigInputStage
    stm32l1xx_hal_uart.o(i.HAL_HalfDuplex_Init) refers to stm32l1xx_hal_msp.o(i.HAL_UART_MspInit) for HAL_UART_MspInit
    stm32l1xx_hal_uart.o(i.HAL_HalfDuplex_Init) refers to stm32l1xx_hal_uart.o(i.UART_SetConfig) for UART_SetConfig
    stm32l1xx_hal_uart.o(i.HAL_LIN_Init) refers to stm32l1xx_hal_msp.o(i.HAL_UART_MspInit) for HAL_UART_MspInit
    stm32l1xx_hal_uart.o(i.HAL_LIN_Init) refers to stm32l1xx_hal_uart.o(i.UART_SetConfig) for UART_SetConfig
    stm32l1xx_hal_uart.o(i.HAL_MultiProcessor_Init) refers to stm32l1xx_hal_msp.o(i.HAL_UART_MspInit) for HAL_UART_MspInit
    stm32l1xx_hal_uart.o(i.HAL_MultiProcessor_Init) refers to stm32l1xx_hal_uart.o(i.UART_SetConfig) for UART_SetConfig
    stm32l1xx_hal_uart.o(i.HAL_UART_DMAStop) refers to stm32l1xx_hal_dma.o(i.HAL_DMA_Abort) for HAL_DMA_Abort
    stm32l1xx_hal_uart.o(i.HAL_UART_DeInit) refers to stm32l1xx_hal_msp.o(i.HAL_UART_MspDeInit) for HAL_UART_MspDeInit
    stm32l1xx_hal_uart.o(i.HAL_UART_IRQHandler) refers to stm32l1xx_hal_uart.o(i.UART_Receive_IT) for UART_Receive_IT
    stm32l1xx_hal_uart.o(i.HAL_UART_IRQHandler) refers to stm32l1xx_hal_uart.o(i.UART_Transmit_IT) for UART_Transmit_IT
    stm32l1xx_hal_uart.o(i.HAL_UART_IRQHandler) refers to stm32l1xx_hal_uart.o(i.UART_EndTransmit_IT) for UART_EndTransmit_IT
    stm32l1xx_hal_uart.o(i.HAL_UART_IRQHandler) refers to stm32l1xx_hal_uart.o(i.HAL_UART_ErrorCallback) for HAL_UART_ErrorCallback
    stm32l1xx_hal_uart.o(i.HAL_UART_Init) refers to stm32l1xx_hal_msp.o(i.HAL_UART_MspInit) for HAL_UART_MspInit
    stm32l1xx_hal_uart.o(i.HAL_UART_Init) refers to stm32l1xx_hal_uart.o(i.UART_SetConfig) for UART_SetConfig
    stm32l1xx_hal_uart.o(i.HAL_UART_Receive) refers to stm32l1xx_hal_uart.o(i.UART_WaitOnFlagUntilTimeout) for UART_WaitOnFlagUntilTimeout
    stm32l1xx_hal_uart.o(i.HAL_UART_Receive_DMA) refers to stm32l1xx_hal_dma.o(i.HAL_DMA_Start_IT) for HAL_DMA_Start_IT
    stm32l1xx_hal_uart.o(i.HAL_UART_Receive_DMA) refers to stm32l1xx_hal_uart.o(i.UART_DMAReceiveCplt) for UART_DMAReceiveCplt
    stm32l1xx_hal_uart.o(i.HAL_UART_Receive_DMA) refers to stm32l1xx_hal_uart.o(i.UART_DMARxHalfCplt) for UART_DMARxHalfCplt
    stm32l1xx_hal_uart.o(i.HAL_UART_Receive_DMA) refers to stm32l1xx_hal_uart.o(i.UART_DMAError) for UART_DMAError
    stm32l1xx_hal_uart.o(i.HAL_UART_Receive_IT) refers to memseta.o(.text) for __aeabi_memclr
    stm32l1xx_hal_uart.o(i.HAL_UART_Transmit) refers to stm32l1xx_hal_uart.o(i.UART_WaitOnFlagUntilTimeout) for UART_WaitOnFlagUntilTimeout
    stm32l1xx_hal_uart.o(i.HAL_UART_Transmit_DMA) refers to stm32l1xx_hal_dma.o(i.HAL_DMA_Start_IT) for HAL_DMA_Start_IT
    stm32l1xx_hal_uart.o(i.HAL_UART_Transmit_DMA) refers to stm32l1xx_hal_uart.o(i.UART_DMATransmitCplt) for UART_DMATransmitCplt
    stm32l1xx_hal_uart.o(i.HAL_UART_Transmit_DMA) refers to stm32l1xx_hal_uart.o(i.UART_DMATxHalfCplt) for UART_DMATxHalfCplt
    stm32l1xx_hal_uart.o(i.HAL_UART_Transmit_DMA) refers to stm32l1xx_hal_uart.o(i.UART_DMAError) for UART_DMAError
    stm32l1xx_hal_uart.o(i.UART_DMAError) refers to stm32l1xx_hal_uart.o(i.HAL_UART_ErrorCallback) for HAL_UART_ErrorCallback
    stm32l1xx_hal_uart.o(i.UART_DMAReceiveCplt) refers to stm32l1xx_hal_uart.o(i.HAL_UART_RxCpltCallback) for HAL_UART_RxCpltCallback
    stm32l1xx_hal_uart.o(i.UART_DMARxHalfCplt) refers to stm32l1xx_hal_uart.o(i.HAL_UART_RxHalfCpltCallback) for HAL_UART_RxHalfCpltCallback
    stm32l1xx_hal_uart.o(i.UART_DMATransmitCplt) refers to stm32l1xx_hal_uart.o(i.HAL_UART_TxCpltCallback) for HAL_UART_TxCpltCallback
    stm32l1xx_hal_uart.o(i.UART_DMATxHalfCplt) refers to stm32l1xx_hal_uart.o(i.HAL_UART_TxHalfCpltCallback) for HAL_UART_TxHalfCpltCallback
    stm32l1xx_hal_uart.o(i.UART_EndTransmit_IT) refers to stm32l1xx_hal_uart.o(i.HAL_UART_TxCpltCallback) for HAL_UART_TxCpltCallback
    stm32l1xx_hal_uart.o(i.UART_Receive_IT) refers to stm32l1xx_hal_uart.o(i.HAL_UART_Receive_End) for HAL_UART_Receive_End
    stm32l1xx_hal_uart.o(i.UART_Receive_IT) refers to stm32l1xx_hal_uart.o(i.HAL_UART_RxCpltCallback) for HAL_UART_RxCpltCallback
    stm32l1xx_hal_uart.o(i.UART_SetConfig) refers to stm32l1xx_hal_rcc.o(i.HAL_RCC_GetPCLK2Freq) for HAL_RCC_GetPCLK2Freq
    stm32l1xx_hal_uart.o(i.UART_SetConfig) refers to stm32l1xx_hal_rcc.o(i.HAL_RCC_GetPCLK1Freq) for HAL_RCC_GetPCLK1Freq
    stm32l1xx_hal_uart.o(i.UART_WaitOnFlagUntilTimeout) refers to stm32l1xx_hal.o(i.HAL_GetTick) for HAL_GetTick
    stm32l1xx_hal.o(i.HAL_DeInit) refers to stm32l1xx_hal.o(i.HAL_MspDeInit) for HAL_MspDeInit
    stm32l1xx_hal.o(i.HAL_Delay) refers to stm32l1xx_hal.o(i.HAL_GetTick) for HAL_GetTick
    stm32l1xx_hal.o(i.HAL_GetTick) refers to stm32l1xx_hal.o(.data) for uwTick
    stm32l1xx_hal.o(i.HAL_IncTick) refers to stm32l1xx_hal.o(.data) for uwTick
    stm32l1xx_hal.o(i.HAL_Init) refers to stm32l1xx_hal_cortex.o(i.HAL_NVIC_SetPriorityGrouping) for HAL_NVIC_SetPriorityGrouping
    stm32l1xx_hal.o(i.HAL_Init) refers to stm32l1xx_hal.o(i.HAL_InitTick) for HAL_InitTick
    stm32l1xx_hal.o(i.HAL_Init) refers to stm32l1xx_hal.o(i.HAL_MspInit) for HAL_MspInit
    stm32l1xx_hal.o(i.HAL_InitTick) refers to stm32l1xx_hal_rcc.o(i.HAL_RCC_GetHCLKFreq) for HAL_RCC_GetHCLKFreq
    stm32l1xx_hal.o(i.HAL_InitTick) refers to stm32l1xx_hal_cortex.o(i.HAL_SYSTICK_Config) for HAL_SYSTICK_Config
    stm32l1xx_hal.o(i.HAL_InitTick) refers to stm32l1xx_hal_cortex.o(i.HAL_NVIC_SetPriority) for HAL_NVIC_SetPriority
    stm32l1xx_hal_dma.o(i.HAL_DMA_Abort) refers to stm32l1xx_hal.o(i.HAL_GetTick) for HAL_GetTick
    stm32l1xx_hal_dma.o(i.HAL_DMA_PollForTransfer) refers to stm32l1xx_hal.o(i.HAL_GetTick) for HAL_GetTick
    stm32l1xx_hal_dma.o(i.HAL_DMA_Start) refers to stm32l1xx_hal_dma.o(i.DMA_SetConfig) for DMA_SetConfig
    stm32l1xx_hal_dma.o(i.HAL_DMA_Start_IT) refers to stm32l1xx_hal_dma.o(i.DMA_SetConfig) for DMA_SetConfig
    stm32l1xx_hal_rcc.o(i.HAL_RCC_ClockConfig) refers to stm32l1xx_hal.o(i.HAL_GetTick) for HAL_GetTick
    stm32l1xx_hal_rcc.o(i.HAL_RCC_ClockConfig) refers to stm32l1xx_hal.o(i.HAL_InitTick) for HAL_InitTick
    stm32l1xx_hal_rcc.o(i.HAL_RCC_GetHCLKFreq) refers to stm32l1xx_hal_rcc.o(i.HAL_RCC_GetSysClockFreq) for HAL_RCC_GetSysClockFreq
    stm32l1xx_hal_rcc.o(i.HAL_RCC_GetHCLKFreq) refers to stm32l1xx_hal_rcc.o(.constdata) for aAPBAHBPrescTable
    stm32l1xx_hal_rcc.o(i.HAL_RCC_GetHCLKFreq) refers to system_stm32l1xx.o(.data) for SystemCoreClock
    stm32l1xx_hal_rcc.o(i.HAL_RCC_GetPCLK1Freq) refers to stm32l1xx_hal_rcc.o(i.HAL_RCC_GetHCLKFreq) for HAL_RCC_GetHCLKFreq
    stm32l1xx_hal_rcc.o(i.HAL_RCC_GetPCLK1Freq) refers to stm32l1xx_hal_rcc.o(.constdata) for aAPBAHBPrescTable
    stm32l1xx_hal_rcc.o(i.HAL_RCC_GetPCLK2Freq) refers to stm32l1xx_hal_rcc.o(i.HAL_RCC_GetHCLKFreq) for HAL_RCC_GetHCLKFreq
    stm32l1xx_hal_rcc.o(i.HAL_RCC_GetPCLK2Freq) refers to stm32l1xx_hal_rcc.o(.constdata) for aAPBAHBPrescTable
    stm32l1xx_hal_rcc.o(i.HAL_RCC_GetSysClockFreq) refers to stm32l1xx_hal_rcc.o(.constdata) for aPLLMulFactorTable
    stm32l1xx_hal_rcc.o(i.HAL_RCC_MCOConfig) refers to stm32l1xx_hal_gpio.o(i.HAL_GPIO_Init) for HAL_GPIO_Init
    stm32l1xx_hal_rcc.o(i.HAL_RCC_NMI_IRQHandler) refers to stm32l1xx_hal_rcc.o(i.HAL_RCC_CSSCallback) for HAL_RCC_CSSCallback
    stm32l1xx_hal_rcc.o(i.HAL_RCC_OscConfig) refers to stm32l1xx_hal.o(i.HAL_GetTick) for HAL_GetTick
    stm32l1xx_hal_rcc.o(i.HAL_RCC_OscConfig) refers to stm32l1xx_hal_rcc.o(i.RCC_SetFlashLatencyFromMSIRange) for RCC_SetFlashLatencyFromMSIRange
    stm32l1xx_hal_rcc.o(i.HAL_RCC_OscConfig) refers to stm32l1xx_hal.o(i.HAL_InitTick) for HAL_InitTick
    stm32l1xx_hal_rcc.o(i.RCC_SetFlashLatencyFromMSIRange) refers to stm32l1xx_hal_pwr_ex.o(i.HAL_PWREx_GetVoltageRange) for HAL_PWREx_GetVoltageRange
    entry.o(.ARM.Collect$$$$00000000) refers (Special) to entry10a.o(.ARM.Collect$$$$0000000D) for __rt_final_cpp
    entry.o(.ARM.Collect$$$$00000000) refers (Special) to entry11a.o(.ARM.Collect$$$$0000000F) for __rt_final_exit
    entry.o(.ARM.Collect$$$$00000000) refers (Special) to entry7b.o(.ARM.Collect$$$$00000008) for _main_clock
    entry.o(.ARM.Collect$$$$00000000) refers (Special) to entry8b.o(.ARM.Collect$$$$0000000A) for _main_cpp_init
    entry.o(.ARM.Collect$$$$00000000) refers (Special) to entry9a.o(.ARM.Collect$$$$0000000B) for _main_init
    entry.o(.ARM.Collect$$$$00000000) refers (Special) to entry5.o(.ARM.Collect$$$$00000004) for _main_scatterload
    entry.o(.ARM.Collect$$$$00000000) refers (Special) to entry2.o(.ARM.Collect$$$$00000001) for _main_stk
    printfb.o(i.__0fprintf$bare) refers to printfb.o(i._printf_core) for _printf_core
    printfb.o(i.__0fprintf$bare) refers to bsp_usart.o(i.fputc) for fputc
    printfb.o(i.__0printf$bare) refers to printfb.o(i._printf_core) for _printf_core
    printfb.o(i.__0printf$bare) refers to bsp_usart.o(i.fputc) for fputc
    printfb.o(i.__0printf$bare) refers to stdout.o(.data) for __stdout
    printfb.o(i.__0snprintf$bare) refers to printfb.o(i._printf_core) for _printf_core
    printfb.o(i.__0snprintf$bare) refers to printfb.o(i._snputc) for _snputc
    printfb.o(i.__0sprintf$bare) refers to printfb.o(i._printf_core) for _printf_core
    printfb.o(i.__0sprintf$bare) refers to printfb.o(i._sputc) for _sputc
    printfb.o(i.__0vfprintf$bare) refers to printfb.o(i._printf_core) for _printf_core
    printfb.o(i.__0vfprintf$bare) refers to bsp_usart.o(i.fputc) for fputc
    printfb.o(i.__0vprintf$bare) refers to printfb.o(i._printf_core) for _printf_core
    printfb.o(i.__0vprintf$bare) refers to bsp_usart.o(i.fputc) for fputc
    printfb.o(i.__0vprintf$bare) refers to stdout.o(.data) for __stdout
    printfb.o(i.__0vsnprintf$bare) refers to printfb.o(i._printf_core) for _printf_core
    printfb.o(i.__0vsnprintf$bare) refers to printfb.o(i._snputc) for _snputc
    printfb.o(i.__0vsprintf$bare) refers to printfb.o(i._printf_core) for _printf_core
    printfb.o(i.__0vsprintf$bare) refers to printfb.o(i._sputc) for _sputc
    printf0.o(i.__0fprintf$0) refers to printf0.o(i._printf_core) for _printf_core
    printf0.o(i.__0fprintf$0) refers to bsp_usart.o(i.fputc) for fputc
    printf0.o(i.__0printf$0) refers to printf0.o(i._printf_core) for _printf_core
    printf0.o(i.__0printf$0) refers to bsp_usart.o(i.fputc) for fputc
    printf0.o(i.__0printf$0) refers to stdout.o(.data) for __stdout
    printf0.o(i.__0snprintf$0) refers to printf0.o(i._printf_core) for _printf_core
    printf0.o(i.__0snprintf$0) refers to printf0.o(i._snputc) for _snputc
    printf0.o(i.__0sprintf$0) refers to printf0.o(i._printf_core) for _printf_core
    printf0.o(i.__0sprintf$0) refers to printf0.o(i._sputc) for _sputc
    printf0.o(i.__0vfprintf$0) refers to printf0.o(i._printf_core) for _printf_core
    printf0.o(i.__0vfprintf$0) refers to bsp_usart.o(i.fputc) for fputc
    printf0.o(i.__0vprintf$0) refers to printf0.o(i._printf_core) for _printf_core
    printf0.o(i.__0vprintf$0) refers to bsp_usart.o(i.fputc) for fputc
    printf0.o(i.__0vprintf$0) refers to stdout.o(.data) for __stdout
    printf0.o(i.__0vsnprintf$0) refers to printf0.o(i._printf_core) for _printf_core
    printf0.o(i.__0vsnprintf$0) refers to printf0.o(i._snputc) for _snputc
    printf0.o(i.__0vsprintf$0) refers to printf0.o(i._printf_core) for _printf_core
    printf0.o(i.__0vsprintf$0) refers to printf0.o(i._sputc) for _sputc
    printf1.o(i.__0fprintf$1) refers to printf1.o(i._printf_core) for _printf_core
    printf1.o(i.__0fprintf$1) refers to bsp_usart.o(i.fputc) for fputc
    printf1.o(i.__0printf$1) refers to printf1.o(i._printf_core) for _printf_core
    printf1.o(i.__0printf$1) refers to bsp_usart.o(i.fputc) for fputc
    printf1.o(i.__0printf$1) refers to stdout.o(.data) for __stdout
    printf1.o(i.__0snprintf$1) refers to printf1.o(i._printf_core) for _printf_core
    printf1.o(i.__0snprintf$1) refers to printf1.o(i._snputc) for _snputc
    printf1.o(i.__0sprintf$1) refers to printf1.o(i._printf_core) for _printf_core
    printf1.o(i.__0sprintf$1) refers to printf1.o(i._sputc) for _sputc
    printf1.o(i.__0vfprintf$1) refers to printf1.o(i._printf_core) for _printf_core
    printf1.o(i.__0vfprintf$1) refers to bsp_usart.o(i.fputc) for fputc
    printf1.o(i.__0vprintf$1) refers to printf1.o(i._printf_core) for _printf_core
    printf1.o(i.__0vprintf$1) refers to bsp_usart.o(i.fputc) for fputc
    printf1.o(i.__0vprintf$1) refers to stdout.o(.data) for __stdout
    printf1.o(i.__0vsnprintf$1) refers to printf1.o(i._printf_core) for _printf_core
    printf1.o(i.__0vsnprintf$1) refers to printf1.o(i._snputc) for _snputc
    printf1.o(i.__0vsprintf$1) refers to printf1.o(i._printf_core) for _printf_core
    printf1.o(i.__0vsprintf$1) refers to printf1.o(i._sputc) for _sputc
    printf1.o(i._printf_core) refers to uidiv.o(.text) for __aeabi_uidivmod
    printf2.o(i.__0fprintf$2) refers to printf2.o(i._printf_core) for _printf_core
    printf2.o(i.__0fprintf$2) refers to bsp_usart.o(i.fputc) for fputc
    printf2.o(i.__0printf$2) refers to printf2.o(i._printf_core) for _printf_core
    printf2.o(i.__0printf$2) refers to bsp_usart.o(i.fputc) for fputc
    printf2.o(i.__0printf$2) refers to stdout.o(.data) for __stdout
    printf2.o(i.__0snprintf$2) refers to printf2.o(i._printf_core) for _printf_core
    printf2.o(i.__0snprintf$2) refers to printf2.o(i._snputc) for _snputc
    printf2.o(i.__0sprintf$2) refers to printf2.o(i._printf_core) for _printf_core
    printf2.o(i.__0sprintf$2) refers to printf2.o(i._sputc) for _sputc
    printf2.o(i.__0vfprintf$2) refers to printf2.o(i._printf_core) for _printf_core
    printf2.o(i.__0vfprintf$2) refers to bsp_usart.o(i.fputc) for fputc
    printf2.o(i.__0vprintf$2) refers to printf2.o(i._printf_core) for _printf_core
    printf2.o(i.__0vprintf$2) refers to bsp_usart.o(i.fputc) for fputc
    printf2.o(i.__0vprintf$2) refers to stdout.o(.data) for __stdout
    printf2.o(i.__0vsnprintf$2) refers to printf2.o(i._printf_core) for _printf_core
    printf2.o(i.__0vsnprintf$2) refers to printf2.o(i._snputc) for _snputc
    printf2.o(i.__0vsprintf$2) refers to printf2.o(i._printf_core) for _printf_core
    printf2.o(i.__0vsprintf$2) refers to printf2.o(i._sputc) for _sputc
    printf3.o(i.__0fprintf$3) refers to printf3.o(i._printf_core) for _printf_core
    printf3.o(i.__0fprintf$3) refers to bsp_usart.o(i.fputc) for fputc
    printf3.o(i.__0printf$3) refers to printf3.o(i._printf_core) for _printf_core
    printf3.o(i.__0printf$3) refers to bsp_usart.o(i.fputc) for fputc
    printf3.o(i.__0printf$3) refers to stdout.o(.data) for __stdout
    printf3.o(i.__0snprintf$3) refers to printf3.o(i._printf_core) for _printf_core
    printf3.o(i.__0snprintf$3) refers to printf3.o(i._snputc) for _snputc
    printf3.o(i.__0sprintf$3) refers to printf3.o(i._printf_core) for _printf_core
    printf3.o(i.__0sprintf$3) refers to printf3.o(i._sputc) for _sputc
    printf3.o(i.__0vfprintf$3) refers to printf3.o(i._printf_core) for _printf_core
    printf3.o(i.__0vfprintf$3) refers to bsp_usart.o(i.fputc) for fputc
    printf3.o(i.__0vprintf$3) refers to printf3.o(i._printf_core) for _printf_core
    printf3.o(i.__0vprintf$3) refers to bsp_usart.o(i.fputc) for fputc
    printf3.o(i.__0vprintf$3) refers to stdout.o(.data) for __stdout
    printf3.o(i.__0vsnprintf$3) refers to printf3.o(i._printf_core) for _printf_core
    printf3.o(i.__0vsnprintf$3) refers to printf3.o(i._snputc) for _snputc
    printf3.o(i.__0vsprintf$3) refers to printf3.o(i._printf_core) for _printf_core
    printf3.o(i.__0vsprintf$3) refers to printf3.o(i._sputc) for _sputc
    printf3.o(i._printf_core) refers to uidiv.o(.text) for __aeabi_uidivmod
    printf4.o(i.__0fprintf$4) refers to printf4.o(i._printf_core) for _printf_core
    printf4.o(i.__0fprintf$4) refers to bsp_usart.o(i.fputc) for fputc
    printf4.o(i.__0printf$4) refers to printf4.o(i._printf_core) for _printf_core
    printf4.o(i.__0printf$4) refers to bsp_usart.o(i.fputc) for fputc
    printf4.o(i.__0printf$4) refers to stdout.o(.data) for __stdout
    printf4.o(i.__0snprintf$4) refers to printf4.o(i._printf_core) for _printf_core
    printf4.o(i.__0snprintf$4) refers to printf4.o(i._snputc) for _snputc
    printf4.o(i.__0sprintf$4) refers to printf4.o(i._printf_core) for _printf_core
    printf4.o(i.__0sprintf$4) refers to printf4.o(i._sputc) for _sputc
    printf4.o(i.__0vfprintf$4) refers to printf4.o(i._printf_core) for _printf_core
    printf4.o(i.__0vfprintf$4) refers to bsp_usart.o(i.fputc) for fputc
    printf4.o(i.__0vprintf$4) refers to printf4.o(i._printf_core) for _printf_core
    printf4.o(i.__0vprintf$4) refers to bsp_usart.o(i.fputc) for fputc
    printf4.o(i.__0vprintf$4) refers to stdout.o(.data) for __stdout
    printf4.o(i.__0vsnprintf$4) refers to printf4.o(i._printf_core) for _printf_core
    printf4.o(i.__0vsnprintf$4) refers to printf4.o(i._snputc) for _snputc
    printf4.o(i.__0vsprintf$4) refers to printf4.o(i._printf_core) for _printf_core
    printf4.o(i.__0vsprintf$4) refers to printf4.o(i._sputc) for _sputc
    printf4.o(i._printf_core) refers to uldiv.o(.text) for __aeabi_uldivmod
    printf5.o(i.__0fprintf$5) refers to printf5.o(i._printf_core) for _printf_core
    printf5.o(i.__0fprintf$5) refers to bsp_usart.o(i.fputc) for fputc
    printf5.o(i.__0printf$5) refers to printf5.o(i._printf_core) for _printf_core
    printf5.o(i.__0printf$5) refers to bsp_usart.o(i.fputc) for fputc
    printf5.o(i.__0printf$5) refers to stdout.o(.data) for __stdout
    printf5.o(i.__0snprintf$5) refers to printf5.o(i._printf_core) for _printf_core
    printf5.o(i.__0snprintf$5) refers to printf5.o(i._snputc) for _snputc
    printf5.o(i.__0sprintf$5) refers to printf5.o(i._printf_core) for _printf_core
    printf5.o(i.__0sprintf$5) refers to printf5.o(i._sputc) for _sputc
    printf5.o(i.__0vfprintf$5) refers to printf5.o(i._printf_core) for _printf_core
    printf5.o(i.__0vfprintf$5) refers to bsp_usart.o(i.fputc) for fputc
    printf5.o(i.__0vprintf$5) refers to printf5.o(i._printf_core) for _printf_core
    printf5.o(i.__0vprintf$5) refers to bsp_usart.o(i.fputc) for fputc
    printf5.o(i.__0vprintf$5) refers to stdout.o(.data) for __stdout
    printf5.o(i.__0vsnprintf$5) refers to printf5.o(i._printf_core) for _printf_core
    printf5.o(i.__0vsnprintf$5) refers to printf5.o(i._snputc) for _snputc
    printf5.o(i.__0vsprintf$5) refers to printf5.o(i._printf_core) for _printf_core
    printf5.o(i.__0vsprintf$5) refers to printf5.o(i._sputc) for _sputc
    printf5.o(i._printf_core) refers to uldiv.o(.text) for __aeabi_uldivmod
    printf6.o(i.__0fprintf$6) refers to printf6.o(i._printf_core) for _printf_core
    printf6.o(i.__0fprintf$6) refers to bsp_usart.o(i.fputc) for fputc
    printf6.o(i.__0printf$6) refers to printf6.o(i._printf_core) for _printf_core
    printf6.o(i.__0printf$6) refers to bsp_usart.o(i.fputc) for fputc
    printf6.o(i.__0printf$6) refers to stdout.o(.data) for __stdout
    printf6.o(i.__0snprintf$6) refers to printf6.o(i._printf_core) for _printf_core
    printf6.o(i.__0snprintf$6) refers to printf6.o(i._snputc) for _snputc
    printf6.o(i.__0sprintf$6) refers to printf6.o(i._printf_core) for _printf_core
    printf6.o(i.__0sprintf$6) refers to printf6.o(i._sputc) for _sputc
    printf6.o(i.__0vfprintf$6) refers to printf6.o(i._printf_core) for _printf_core
    printf6.o(i.__0vfprintf$6) refers to bsp_usart.o(i.fputc) for fputc
    printf6.o(i.__0vprintf$6) refers to printf6.o(i._printf_core) for _printf_core
    printf6.o(i.__0vprintf$6) refers to bsp_usart.o(i.fputc) for fputc
    printf6.o(i.__0vprintf$6) refers to stdout.o(.data) for __stdout
    printf6.o(i.__0vsnprintf$6) refers to printf6.o(i._printf_core) for _printf_core
    printf6.o(i.__0vsnprintf$6) refers to printf6.o(i._snputc) for _snputc
    printf6.o(i.__0vsprintf$6) refers to printf6.o(i._printf_core) for _printf_core
    printf6.o(i.__0vsprintf$6) refers to printf6.o(i._sputc) for _sputc
    printf6.o(i._printf_core) refers to printf6.o(i._printf_pre_padding) for _printf_pre_padding
    printf6.o(i._printf_core) refers to uidiv.o(.text) for __aeabi_uidivmod
    printf6.o(i._printf_core) refers to printf6.o(i._printf_post_padding) for _printf_post_padding
    printf7.o(i.__0fprintf$7) refers to printf7.o(i._printf_core) for _printf_core
    printf7.o(i.__0fprintf$7) refers to bsp_usart.o(i.fputc) for fputc
    printf7.o(i.__0printf$7) refers to printf7.o(i._printf_core) for _printf_core
    printf7.o(i.__0printf$7) refers to bsp_usart.o(i.fputc) for fputc
    printf7.o(i.__0printf$7) refers to stdout.o(.data) for __stdout
    printf7.o(i.__0snprintf$7) refers to printf7.o(i._printf_core) for _printf_core
    printf7.o(i.__0snprintf$7) refers to printf7.o(i._snputc) for _snputc
    printf7.o(i.__0sprintf$7) refers to printf7.o(i._printf_core) for _printf_core
    printf7.o(i.__0sprintf$7) refers to printf7.o(i._sputc) for _sputc
    printf7.o(i.__0vfprintf$7) refers to printf7.o(i._printf_core) for _printf_core
    printf7.o(i.__0vfprintf$7) refers to bsp_usart.o(i.fputc) for fputc
    printf7.o(i.__0vprintf$7) refers to printf7.o(i._printf_core) for _printf_core
    printf7.o(i.__0vprintf$7) refers to bsp_usart.o(i.fputc) for fputc
    printf7.o(i.__0vprintf$7) refers to stdout.o(.data) for __stdout
    printf7.o(i.__0vsnprintf$7) refers to printf7.o(i._printf_core) for _printf_core
    printf7.o(i.__0vsnprintf$7) refers to printf7.o(i._snputc) for _snputc
    printf7.o(i.__0vsprintf$7) refers to printf7.o(i._printf_core) for _printf_core
    printf7.o(i.__0vsprintf$7) refers to printf7.o(i._sputc) for _sputc
    printf7.o(i._printf_core) refers to printf7.o(i._printf_pre_padding) for _printf_pre_padding
    printf7.o(i._printf_core) refers to uldiv.o(.text) for __aeabi_uldivmod
    printf7.o(i._printf_core) refers to printf7.o(i._printf_post_padding) for _printf_post_padding
    printf8.o(i.__0fprintf$8) refers to printf8.o(i._printf_core) for _printf_core
    printf8.o(i.__0fprintf$8) refers to bsp_usart.o(i.fputc) for fputc
    printf8.o(i.__0printf$8) refers to printf8.o(i._printf_core) for _printf_core
    printf8.o(i.__0printf$8) refers to bsp_usart.o(i.fputc) for fputc
    printf8.o(i.__0printf$8) refers to stdout.o(.data) for __stdout
    printf8.o(i.__0snprintf$8) refers to printf8.o(i._printf_core) for _printf_core
    printf8.o(i.__0snprintf$8) refers to printf8.o(i._snputc) for _snputc
    printf8.o(i.__0sprintf$8) refers to printf8.o(i._printf_core) for _printf_core
    printf8.o(i.__0sprintf$8) refers to printf8.o(i._sputc) for _sputc
    printf8.o(i.__0vfprintf$8) refers to printf8.o(i._printf_core) for _printf_core
    printf8.o(i.__0vfprintf$8) refers to bsp_usart.o(i.fputc) for fputc
    printf8.o(i.__0vprintf$8) refers to printf8.o(i._printf_core) for _printf_core
    printf8.o(i.__0vprintf$8) refers to bsp_usart.o(i.fputc) for fputc
    printf8.o(i.__0vprintf$8) refers to stdout.o(.data) for __stdout
    printf8.o(i.__0vsnprintf$8) refers to printf8.o(i._printf_core) for _printf_core
    printf8.o(i.__0vsnprintf$8) refers to printf8.o(i._snputc) for _snputc
    printf8.o(i.__0vsprintf$8) refers to printf8.o(i._printf_core) for _printf_core
    printf8.o(i.__0vsprintf$8) refers to printf8.o(i._sputc) for _sputc
    printf8.o(i._printf_core) refers to printf8.o(i._printf_pre_padding) for _printf_pre_padding
    printf8.o(i._printf_core) refers to uldiv.o(.text) for __aeabi_uldivmod
    printf8.o(i._printf_core) refers to printf8.o(i._printf_post_padding) for _printf_post_padding
    printfa.o(i.__0fprintf) refers (Special) to iusefp.o(.text) for __I$use$fp
    printfa.o(i.__0fprintf) refers to printfa.o(i._printf_core) for _printf_core
    printfa.o(i.__0fprintf) refers to bsp_usart.o(i.fputc) for fputc
    printfa.o(i.__0printf) refers (Special) to iusefp.o(.text) for __I$use$fp
    printfa.o(i.__0printf) refers to printfa.o(i._printf_core) for _printf_core
    printfa.o(i.__0printf) refers to bsp_usart.o(i.fputc) for fputc
    printfa.o(i.__0printf) refers to stdout.o(.data) for __stdout
    printfa.o(i.__0snprintf) refers (Special) to iusefp.o(.text) for __I$use$fp
    printfa.o(i.__0snprintf) refers to printfa.o(i._printf_core) for _printf_core
    printfa.o(i.__0snprintf) refers to printfa.o(i._snputc) for _snputc
    printfa.o(i.__0sprintf) refers (Special) to iusefp.o(.text) for __I$use$fp
    printfa.o(i.__0sprintf) refers to printfa.o(i._printf_core) for _printf_core
    printfa.o(i.__0sprintf) refers to printfa.o(i._sputc) for _sputc
    printfa.o(i.__0vfprintf) refers (Special) to iusefp.o(.text) for __I$use$fp
    printfa.o(i.__0vfprintf) refers to printfa.o(i._printf_core) for _printf_core
    printfa.o(i.__0vfprintf) refers to bsp_usart.o(i.fputc) for fputc
    printfa.o(i.__0vprintf) refers (Special) to iusefp.o(.text) for __I$use$fp
    printfa.o(i.__0vprintf) refers to printfa.o(i._printf_core) for _printf_core
    printfa.o(i.__0vprintf) refers to bsp_usart.o(i.fputc) for fputc
    printfa.o(i.__0vprintf) refers to stdout.o(.data) for __stdout
    printfa.o(i.__0vsnprintf) refers (Special) to iusefp.o(.text) for __I$use$fp
    printfa.o(i.__0vsnprintf) refers to printfa.o(i._printf_core) for _printf_core
    printfa.o(i.__0vsnprintf) refers to printfa.o(i._snputc) for _snputc
    printfa.o(i.__0vsprintf) refers (Special) to iusefp.o(.text) for __I$use$fp
    printfa.o(i.__0vsprintf) refers to printfa.o(i._printf_core) for _printf_core
    printfa.o(i.__0vsprintf) refers to printfa.o(i._sputc) for _sputc
    printfa.o(i._fp_digits) refers (Special) to iusefp.o(.text) for __I$use$fp
    printfa.o(i._fp_digits) refers to dmul.o(.text) for __aeabi_dmul
    printfa.o(i._fp_digits) refers to ddiv.o(.text) for __aeabi_ddiv
    printfa.o(i._fp_digits) refers to cdrcmple.o(.text) for __aeabi_cdrcmple
    printfa.o(i._fp_digits) refers to dadd.o(.text) for __aeabi_dadd
    printfa.o(i._fp_digits) refers to dfixul.o(.text) for __aeabi_d2ulz
    printfa.o(i._fp_digits) refers to uldiv.o(.text) for __aeabi_uldivmod
    printfa.o(i._printf_core) refers (Special) to iusefp.o(.text) for __I$use$fp
    printfa.o(i._printf_core) refers to printfa.o(i._printf_pre_padding) for _printf_pre_padding
    printfa.o(i._printf_core) refers to uldiv.o(.text) for __aeabi_uldivmod
    printfa.o(i._printf_core) refers to printfa.o(i._printf_post_padding) for _printf_post_padding
    printfa.o(i._printf_core) refers to printfa.o(i._fp_digits) for _fp_digits
    printfa.o(i._printf_core) refers to uidiv.o(.text) for __aeabi_uidivmod
    printfa.o(i._printf_post_padding) refers (Special) to iusefp.o(.text) for __I$use$fp
    printfa.o(i._printf_pre_padding) refers (Special) to iusefp.o(.text) for __I$use$fp
    printfa.o(i._snputc) refers (Special) to iusefp.o(.text) for __I$use$fp
    printfa.o(i._sputc) refers (Special) to iusefp.o(.text) for __I$use$fp
    fadd.o(.text) refers (Special) to iusefp.o(.text) for __I$use$fp
    fadd.o(.text) refers to fepilogue.o(.text) for _float_epilogue
    fmul.o(.text) refers (Special) to iusefp.o(.text) for __I$use$fp
    fdiv.o(.text) refers (Special) to iusefp.o(.text) for __I$use$fp
    fdiv.o(.text) refers to fepilogue.o(.text) for _float_round
    dadd.o(.text) refers (Special) to iusefp.o(.text) for __I$use$fp
    dadd.o(.text) refers to llshl.o(.text) for __aeabi_llsl
    dadd.o(.text) refers to llsshr.o(.text) for __aeabi_lasr
    dadd.o(.text) refers to depilogue.o(.text) for _double_epilogue
    dmul.o(.text) refers (Special) to iusefp.o(.text) for __I$use$fp
    dmul.o(.text) refers to depilogue.o(.text) for _double_epilogue
    ddiv.o(.text) refers (Special) to iusefp.o(.text) for __I$use$fp
    ddiv.o(.text) refers to depilogue.o(.text) for _double_round
    fflti.o(.text) refers (Special) to iusefp.o(.text) for __I$use$fp
    fflti.o(.text) refers to fepilogue.o(.text) for _float_epilogue
    ffltui.o(.text) refers (Special) to iusefp.o(.text) for __I$use$fp
    ffltui.o(.text) refers to fepilogue.o(.text) for _float_epilogue
    ffixui.o(.text) refers (Special) to iusefp.o(.text) for __I$use$fp
    f2d.o(.text) refers (Special) to iusefp.o(.text) for __I$use$fp
    cdcmple.o(.text) refers (Special) to iusefp.o(.text) for __I$use$fp
    cdrcmple.o(.text) refers (Special) to iusefp.o(.text) for __I$use$fp
    d2f.o(.text) refers (Special) to iusefp.o(.text) for __I$use$fp
    d2f.o(.text) refers to fepilogue.o(.text) for _float_round
    cfcmple.o(.text) refers (Special) to iusefp.o(.text) for __I$use$fp
    cfrcmple.o(.text) refers (Special) to iusefp.o(.text) for __I$use$fp
    entry2.o(.ARM.Collect$$$$00000001) refers to entry2.o(.ARM.Collect$$$$00002712) for __lit__00000000
    entry2.o(.ARM.Collect$$$$00002712) refers to startup_stm32l1xx_hd.o(STACK) for __initial_sp
    entry2.o(__vectab_stack_and_reset_area) refers to startup_stm32l1xx_hd.o(STACK) for __initial_sp
    entry2.o(__vectab_stack_and_reset_area) refers to entry.o(.ARM.Collect$$$$00000000) for __main
    entry5.o(.ARM.Collect$$$$00000004) refers to init.o(.text) for __scatterload
    entry9a.o(.ARM.Collect$$$$0000000B) refers to main.o(i.main) for main
    entry9b.o(.ARM.Collect$$$$0000000C) refers to main.o(i.main) for main
    uldiv.o(.text) refers to llushr.o(.text) for __aeabi_llsr
    uldiv.o(.text) refers to llshl.o(.text) for __aeabi_llsl
    depilogue.o(.text) refers to llshl.o(.text) for __aeabi_llsl
    depilogue.o(.text) refers to llushr.o(.text) for __aeabi_llsr
    dfixul.o(.text) refers to llushr.o(.text) for __aeabi_llsr
    dfixul.o(.text) refers to llshl.o(.text) for __aeabi_llsl
    init.o(.text) refers to entry5.o(.ARM.Collect$$$$00000004) for __main_after_scatterload


==============================================================================

Removing Unused input sections from the image.

    Removing startup_stm32l1xx_hd.o(HEAP), (512 bytes).
    Removing core_cm3.o(.emb_text), (32 bytes).
    Removing system_stm32l1xx.o(i.SystemCoreClockUpdate), (220 bytes).
    Removing stm32l1xx_usart.o(i.USART_ClearFlag), (18 bytes).
    Removing stm32l1xx_usart.o(i.USART_ClearITPendingBit), (30 bytes).
    Removing stm32l1xx_usart.o(i.USART_ClockInit), (32 bytes).
    Removing stm32l1xx_usart.o(i.USART_ClockStructInit), (12 bytes).
    Removing stm32l1xx_usart.o(i.USART_DMACmd), (18 bytes).
    Removing stm32l1xx_usart.o(i.USART_DeInit), (156 bytes).
    Removing stm32l1xx_usart.o(i.USART_HalfDuplexCmd), (24 bytes).
    Removing stm32l1xx_usart.o(i.USART_IrDACmd), (24 bytes).
    Removing stm32l1xx_usart.o(i.USART_IrDAConfig), (18 bytes).
    Removing stm32l1xx_usart.o(i.USART_LINBreakDetectLengthConfig), (18 bytes).
    Removing stm32l1xx_usart.o(i.USART_LINCmd), (24 bytes).
    Removing stm32l1xx_usart.o(i.USART_OneBitMethodCmd), (24 bytes).
    Removing stm32l1xx_usart.o(i.USART_OverSampling8Cmd), (22 bytes).
    Removing stm32l1xx_usart.o(i.USART_ReceiverWakeUpCmd), (24 bytes).
    Removing stm32l1xx_usart.o(i.USART_SendBreak), (10 bytes).
    Removing stm32l1xx_usart.o(i.USART_SetAddress), (18 bytes).
    Removing stm32l1xx_usart.o(i.USART_SetGuardTime), (16 bytes).
    Removing stm32l1xx_usart.o(i.USART_SetPrescaler), (16 bytes).
    Removing stm32l1xx_usart.o(i.USART_SmartCardCmd), (24 bytes).
    Removing stm32l1xx_usart.o(i.USART_SmartCardNACKCmd), (24 bytes).
    Removing stm32l1xx_usart.o(i.USART_StructInit), (24 bytes).
    Removing stm32l1xx_usart.o(i.USART_WakeUpConfig), (18 bytes).
    Removing misc.o(i.NVIC_SetVectorTable), (20 bytes).
    Removing misc.o(i.NVIC_SystemLPConfig), (32 bytes).
    Removing misc.o(i.SysTick_CLKSourceConfig), (40 bytes).
    Removing stm32l1xx_adc.o(i.ADC_AnalogWatchdogCmd), (20 bytes).
    Removing stm32l1xx_adc.o(i.ADC_AnalogWatchdogSingleChannelConfig), (16 bytes).
    Removing stm32l1xx_adc.o(i.ADC_AnalogWatchdogThresholdsConfig), (6 bytes).
    Removing stm32l1xx_adc.o(i.ADC_AutoInjectedConvCmd), (22 bytes).
    Removing stm32l1xx_adc.o(i.ADC_BankSelection), (22 bytes).
    Removing stm32l1xx_adc.o(i.ADC_ClearFlag), (6 bytes).
    Removing stm32l1xx_adc.o(i.ADC_ClearITPendingBit), (10 bytes).
    Removing stm32l1xx_adc.o(i.ADC_CommonInit), (28 bytes).
    Removing stm32l1xx_adc.o(i.ADC_CommonStructInit), (6 bytes).
    Removing stm32l1xx_adc.o(i.ADC_ContinuousModeCmd), (22 bytes).
    Removing stm32l1xx_adc.o(i.ADC_DelaySelectionConfig), (16 bytes).
    Removing stm32l1xx_adc.o(i.ADC_DiscModeChannelCountConfig), (24 bytes).
    Removing stm32l1xx_adc.o(i.ADC_DiscModeCmd), (22 bytes).
    Removing stm32l1xx_adc.o(i.ADC_EOCOnEachRegularChannelCmd), (22 bytes).
    Removing stm32l1xx_adc.o(i.ADC_ExternalTrigInjectedConvConfig), (16 bytes).
    Removing stm32l1xx_adc.o(i.ADC_ExternalTrigInjectedConvEdgeConfig), (16 bytes).
    Removing stm32l1xx_adc.o(i.ADC_GetConversionValue), (8 bytes).
    Removing stm32l1xx_adc.o(i.ADC_GetITStatus), (38 bytes).
    Removing stm32l1xx_adc.o(i.ADC_GetInjectedConversionValue), (28 bytes).
    Removing stm32l1xx_adc.o(i.ADC_GetSoftwareStartConvStatus), (20 bytes).
    Removing stm32l1xx_adc.o(i.ADC_GetSoftwareStartInjectedConvCmdStatus), (20 bytes).
    Removing stm32l1xx_adc.o(i.ADC_ITConfig), (32 bytes).
    Removing stm32l1xx_adc.o(i.ADC_InjectedChannelConfig), (210 bytes).
    Removing stm32l1xx_adc.o(i.ADC_InjectedDiscModeCmd), (22 bytes).
    Removing stm32l1xx_adc.o(i.ADC_InjectedSequencerLengthConfig), (24 bytes).
    Removing stm32l1xx_adc.o(i.ADC_PowerDownCmd), (18 bytes).
    Removing stm32l1xx_adc.o(i.ADC_SetInjectedOffset), (20 bytes).
    Removing stm32l1xx_adc.o(i.ADC_SoftwareStartInjectedConv), (10 bytes).
    Removing stm32l1xx_adc.o(i.ADC_TempSensorVrefintCmd), (36 bytes).
    Removing stm32l1xx_dma.o(i.DMA_ClearFlag), (28 bytes).
    Removing stm32l1xx_dma.o(i.DMA_ClearITPendingBit), (28 bytes).
    Removing stm32l1xx_dma.o(i.DMA_GetCurrDataCounter), (8 bytes).
    Removing stm32l1xx_dma.o(i.DMA_GetITStatus), (44 bytes).
    Removing stm32l1xx_dma.o(i.DMA_ITConfig), (18 bytes).
    Removing stm32l1xx_dma.o(i.DMA_SetCurrDataCounter), (4 bytes).
    Removing stm32l1xx_dma.o(i.DMA_StructInit), (26 bytes).
    Removing stm32l1xx_exti.o(i.EXTI_ClearFlag), (12 bytes).
    Removing stm32l1xx_exti.o(i.EXTI_DeInit), (36 bytes).
    Removing stm32l1xx_exti.o(i.EXTI_GenerateSWInterrupt), (16 bytes).
    Removing stm32l1xx_exti.o(i.EXTI_GetFlagStatus), (24 bytes).
    Removing stm32l1xx_exti.o(i.EXTI_StructInit), (16 bytes).
    Removing stm32l1xx_gpio.o(i.GPIO_DeInit), (228 bytes).
    Removing stm32l1xx_gpio.o(i.GPIO_PinLockConfig), (34 bytes).
    Removing stm32l1xx_gpio.o(i.GPIO_ReadInputData), (6 bytes).
    Removing stm32l1xx_gpio.o(i.GPIO_ReadOutputData), (6 bytes).
    Removing stm32l1xx_gpio.o(i.GPIO_ReadOutputDataBit), (18 bytes).
    Removing stm32l1xx_gpio.o(i.GPIO_StructInit), (18 bytes).
    Removing stm32l1xx_gpio.o(i.GPIO_ToggleBits), (8 bytes).
    Removing stm32l1xx_gpio.o(i.GPIO_Write), (4 bytes).
    Removing stm32l1xx_gpio.o(i.GPIO_WriteBit), (10 bytes).
    Removing stm32l1xx_lcd.o(i.LCD_BlinkConfig), (32 bytes).
    Removing stm32l1xx_lcd.o(i.LCD_ClearFlag), (12 bytes).
    Removing stm32l1xx_lcd.o(i.LCD_ClearITPendingBit), (12 bytes).
    Removing stm32l1xx_lcd.o(i.LCD_DeInit), (22 bytes).
    Removing stm32l1xx_lcd.o(i.LCD_DeadTimeConfig), (28 bytes).
    Removing stm32l1xx_lcd.o(i.LCD_GetITStatus), (44 bytes).
    Removing stm32l1xx_lcd.o(i.LCD_HighDriveCmd), (12 bytes).
    Removing stm32l1xx_lcd.o(i.LCD_ITConfig), (32 bytes).
    Removing stm32l1xx_lcd.o(i.LCD_MuxSegmentCmd), (12 bytes).
    Removing stm32l1xx_lcd.o(i.LCD_Write), (12 bytes).
    Removing stm32l1xx_pwr.o(i.PWR_ClearFlag), (20 bytes).
    Removing stm32l1xx_pwr.o(i.PWR_DeInit), (22 bytes).
    Removing stm32l1xx_pwr.o(i.PWR_EnterLowPowerRunMode), (56 bytes).
    Removing stm32l1xx_pwr.o(i.PWR_EnterSTANDBYMode), (40 bytes).
    Removing stm32l1xx_pwr.o(i.PWR_EnterSTOPMode), (64 bytes).
    Removing stm32l1xx_pwr.o(i.PWR_EnterSleepMode), (56 bytes).
    Removing stm32l1xx_pwr.o(i.PWR_FastWakeUpCmd), (12 bytes).
    Removing stm32l1xx_pwr.o(i.PWR_GetFlagStatus), (24 bytes).
    Removing stm32l1xx_pwr.o(i.PWR_PVDCmd), (12 bytes).
    Removing stm32l1xx_pwr.o(i.PWR_PVDLevelConfig), (24 bytes).
    Removing stm32l1xx_pwr.o(i.PWR_UltraLowPowerCmd), (12 bytes).
    Removing stm32l1xx_pwr.o(i.PWR_VoltageScalingConfig), (28 bytes).
    Removing stm32l1xx_pwr.o(i.PWR_WakeUpPinCmd), (24 bytes).
    Removing stm32l1xx_rcc.o(i.RCC_AHBPeriphClockLPModeCmd), (32 bytes).
    Removing stm32l1xx_rcc.o(i.RCC_AHBPeriphResetCmd), (32 bytes).
    Removing stm32l1xx_rcc.o(i.RCC_APB1PeriphClockLPModeCmd), (32 bytes).
    Removing stm32l1xx_rcc.o(i.RCC_APB1PeriphResetCmd), (32 bytes).
    Removing stm32l1xx_rcc.o(i.RCC_APB2PeriphClockLPModeCmd), (32 bytes).
    Removing stm32l1xx_rcc.o(i.RCC_AdjustHSICalibrationValue), (24 bytes).
    Removing stm32l1xx_rcc.o(i.RCC_AdjustMSICalibrationValue), (12 bytes).
    Removing stm32l1xx_rcc.o(i.RCC_ClearFlag), (20 bytes).
    Removing stm32l1xx_rcc.o(i.RCC_ClearITPendingBit), (12 bytes).
    Removing stm32l1xx_rcc.o(i.RCC_ClockSecuritySystemCmd), (12 bytes).
    Removing stm32l1xx_rcc.o(i.RCC_DeInit), (88 bytes).
    Removing stm32l1xx_rcc.o(i.RCC_GetITStatus), (24 bytes).
    Removing stm32l1xx_rcc.o(i.RCC_HCLKConfig), (24 bytes).
    Removing stm32l1xx_rcc.o(i.RCC_ITConfig), (32 bytes).
    Removing stm32l1xx_rcc.o(i.RCC_LSEClockSecuritySystemCmd), (12 bytes).
    Removing stm32l1xx_rcc.o(i.RCC_MCOConfig), (16 bytes).
    Removing stm32l1xx_rcc.o(i.RCC_MSICmd), (12 bytes).
    Removing stm32l1xx_rcc.o(i.RCC_MSIRangeConfig), (24 bytes).
    Removing stm32l1xx_rcc.o(i.RCC_PCLK1Config), (24 bytes).
    Removing stm32l1xx_rcc.o(i.RCC_PCLK2Config), (24 bytes).
    Removing stm32l1xx_rcc.o(i.RCC_PLLConfig), (20 bytes).
    Removing stm32l1xx_rcc.o(i.RCC_RTCResetCmd), (12 bytes).
    Removing stm32l1xx_rtc.o(i.RTC_AlarmCmd), (116 bytes).
    Removing stm32l1xx_rtc.o(i.RTC_AlarmStructInit), (22 bytes).
    Removing stm32l1xx_rtc.o(i.RTC_AlarmSubSecondConfig), (52 bytes).
    Removing stm32l1xx_rtc.o(i.RTC_Bcd2ToByte), (22 bytes).
    Removing stm32l1xx_rtc.o(i.RTC_BypassShadowCmd), (60 bytes).
    Removing stm32l1xx_rtc.o(i.RTC_ByteToBcd2), (28 bytes).
    Removing stm32l1xx_rtc.o(i.RTC_CalibOutputCmd), (60 bytes).
    Removing stm32l1xx_rtc.o(i.RTC_CalibOutputConfig), (48 bytes).
    Removing stm32l1xx_rtc.o(i.RTC_ClearFlag), (32 bytes).
    Removing stm32l1xx_rtc.o(i.RTC_ClearITPendingBit), (32 bytes).
    Removing stm32l1xx_rtc.o(i.RTC_CoarseCalibCmd), (80 bytes).
    Removing stm32l1xx_rtc.o(i.RTC_CoarseCalibConfig), (56 bytes).
    Removing stm32l1xx_rtc.o(i.RTC_DateStructInit), (14 bytes).
    Removing stm32l1xx_rtc.o(i.RTC_DayLightSavingConfig), (56 bytes).
    Removing stm32l1xx_rtc.o(i.RTC_DeInit), (212 bytes).
    Removing stm32l1xx_rtc.o(i.RTC_EnterInitMode), (80 bytes).
    Removing stm32l1xx_rtc.o(i.RTC_ExitInitMode), (20 bytes).
    Removing stm32l1xx_rtc.o(i.RTC_GetAlarm), (116 bytes).
    Removing stm32l1xx_rtc.o(i.RTC_GetAlarmSubSecond), (36 bytes).
    Removing stm32l1xx_rtc.o(i.RTC_GetDate), (76 bytes).
    Removing stm32l1xx_rtc.o(i.RTC_GetFlagStatus), (40 bytes).
    Removing stm32l1xx_rtc.o(i.RTC_GetITStatus), (72 bytes).
    Removing stm32l1xx_rtc.o(i.RTC_GetStoreOperation), (16 bytes).
    Removing stm32l1xx_rtc.o(i.RTC_GetSubSecond), (20 bytes).
    Removing stm32l1xx_rtc.o(i.RTC_GetTime), (80 bytes).
    Removing stm32l1xx_rtc.o(i.RTC_GetTimeStamp), (156 bytes).
    Removing stm32l1xx_rtc.o(i.RTC_GetTimeStampSubSecond), (12 bytes).
    Removing stm32l1xx_rtc.o(i.RTC_GetWakeUpCounter), (12 bytes).
    Removing stm32l1xx_rtc.o(i.RTC_ITConfig), (100 bytes).
    Removing stm32l1xx_rtc.o(i.RTC_Init), (100 bytes).
    Removing stm32l1xx_rtc.o(i.RTC_OutputConfig), (56 bytes).
    Removing stm32l1xx_rtc.o(i.RTC_OutputTypeConfig), (28 bytes).
    Removing stm32l1xx_rtc.o(i.RTC_ReadBackupRegister), (32 bytes).
    Removing stm32l1xx_rtc.o(i.RTC_RefClockCmd), (80 bytes).
    Removing stm32l1xx_rtc.o(i.RTC_SetAlarm), (236 bytes).
    Removing stm32l1xx_rtc.o(i.RTC_SetDate), (200 bytes).
    Removing stm32l1xx_rtc.o(i.RTC_SetTime), (208 bytes).
    Removing stm32l1xx_rtc.o(i.RTC_SetWakeUpCounter), (28 bytes).
    Removing stm32l1xx_rtc.o(i.RTC_SmoothCalibConfig), (96 bytes).
    Removing stm32l1xx_rtc.o(i.RTC_StructInit), (14 bytes).
    Removing stm32l1xx_rtc.o(i.RTC_SynchroShiftConfig), (124 bytes).
    Removing stm32l1xx_rtc.o(i.RTC_TamperCmd), (32 bytes).
    Removing stm32l1xx_rtc.o(i.RTC_TamperFilterConfig), (28 bytes).
    Removing stm32l1xx_rtc.o(i.RTC_TamperPinsPrechargeDuration), (28 bytes).
    Removing stm32l1xx_rtc.o(i.RTC_TamperPullUpCmd), (36 bytes).
    Removing stm32l1xx_rtc.o(i.RTC_TamperSamplingFreqConfig), (28 bytes).
    Removing stm32l1xx_rtc.o(i.RTC_TamperTriggerConfig), (36 bytes).
    Removing stm32l1xx_rtc.o(i.RTC_TimeStampCmd), (56 bytes).
    Removing stm32l1xx_rtc.o(i.RTC_TimeStampOnTamperDetectionCmd), (36 bytes).
    Removing stm32l1xx_rtc.o(i.RTC_TimeStructInit), (12 bytes).
    Removing stm32l1xx_rtc.o(i.RTC_WakeUpClockConfig), (48 bytes).
    Removing stm32l1xx_rtc.o(i.RTC_WakeUpCmd), (120 bytes).
    Removing stm32l1xx_rtc.o(i.RTC_WriteBackupRegister), (28 bytes).
    Removing stm32l1xx_rtc.o(i.RTC_WriteProtectionCmd), (28 bytes).
    Removing stm32l1xx_tim.o(i.TI1_Config), (58 bytes).
    Removing stm32l1xx_tim.o(i.TI2_Config), (80 bytes).
    Removing stm32l1xx_tim.o(i.TI3_Config), (72 bytes).
    Removing stm32l1xx_tim.o(i.TI4_Config), (80 bytes).
    Removing stm32l1xx_tim.o(i.TIM_ARRPreloadConfig), (24 bytes).
    Removing stm32l1xx_tim.o(i.TIM_CCxCmd), (30 bytes).
    Removing stm32l1xx_tim.o(i.TIM_ClearOC1Ref), (18 bytes).
    Removing stm32l1xx_tim.o(i.TIM_ClearOC2Ref), (24 bytes).
    Removing stm32l1xx_tim.o(i.TIM_ClearOC3Ref), (18 bytes).
    Removing stm32l1xx_tim.o(i.TIM_ClearOC4Ref), (24 bytes).
    Removing stm32l1xx_tim.o(i.TIM_CounterModeConfig), (18 bytes).
    Removing stm32l1xx_tim.o(i.TIM_DMACmd), (18 bytes).
    Removing stm32l1xx_tim.o(i.TIM_DMAConfig), (10 bytes).
    Removing stm32l1xx_tim.o(i.TIM_DeInit), (252 bytes).
    Removing stm32l1xx_tim.o(i.TIM_ETRClockMode1Config), (54 bytes).
    Removing stm32l1xx_tim.o(i.TIM_ETRClockMode2Config), (32 bytes).
    Removing stm32l1xx_tim.o(i.TIM_ETRConfig), (28 bytes).
    Removing stm32l1xx_tim.o(i.TIM_EncoderInterfaceConfig), (66 bytes).
    Removing stm32l1xx_tim.o(i.TIM_ForcedOC1Config), (18 bytes).
    Removing stm32l1xx_tim.o(i.TIM_ForcedOC2Config), (26 bytes).
    Removing stm32l1xx_tim.o(i.TIM_ForcedOC3Config), (18 bytes).
    Removing stm32l1xx_tim.o(i.TIM_ForcedOC4Config), (26 bytes).
    Removing stm32l1xx_tim.o(i.TIM_GenerateEvent), (4 bytes).
    Removing stm32l1xx_tim.o(i.TIM_GetCapture1), (6 bytes).
    Removing stm32l1xx_tim.o(i.TIM_GetCapture2), (6 bytes).
    Removing stm32l1xx_tim.o(i.TIM_GetCapture3), (6 bytes).
    Removing stm32l1xx_tim.o(i.TIM_GetCapture4), (6 bytes).
    Removing stm32l1xx_tim.o(i.TIM_GetCounter), (6 bytes).
    Removing stm32l1xx_tim.o(i.TIM_GetFlagStatus), (18 bytes).
    Removing stm32l1xx_tim.o(i.TIM_GetPrescaler), (6 bytes).
    Removing stm32l1xx_tim.o(i.TIM_ICInit), (110 bytes).
    Removing stm32l1xx_tim.o(i.TIM_ICStructInit), (18 bytes).
    Removing stm32l1xx_tim.o(i.TIM_ITRxExternalClockConfig), (24 bytes).
    Removing stm32l1xx_tim.o(i.TIM_InternalClockConfig), (12 bytes).
    Removing stm32l1xx_tim.o(i.TIM_OC1FastConfig), (18 bytes).
    Removing stm32l1xx_tim.o(i.TIM_OC1Init), (56 bytes).
    Removing stm32l1xx_tim.o(i.TIM_OC1PolarityConfig), (18 bytes).
    Removing stm32l1xx_tim.o(i.TIM_OC1PreloadConfig), (18 bytes).
    Removing stm32l1xx_tim.o(i.TIM_OC2FastConfig), (26 bytes).
    Removing stm32l1xx_tim.o(i.TIM_OC2Init), (70 bytes).
    Removing stm32l1xx_tim.o(i.TIM_OC2PolarityConfig), (26 bytes).
    Removing stm32l1xx_tim.o(i.TIM_OC2PreloadConfig), (26 bytes).
    Removing stm32l1xx_tim.o(i.TIM_OC3FastConfig), (18 bytes).
    Removing stm32l1xx_tim.o(i.TIM_OC3Init), (66 bytes).
    Removing stm32l1xx_tim.o(i.TIM_OC3PolarityConfig), (26 bytes).
    Removing stm32l1xx_tim.o(i.TIM_OC3PreloadConfig), (18 bytes).
    Removing stm32l1xx_tim.o(i.TIM_OC4FastConfig), (26 bytes).
    Removing stm32l1xx_tim.o(i.TIM_OC4Init), (70 bytes).
    Removing stm32l1xx_tim.o(i.TIM_OC4PolarityConfig), (26 bytes).
    Removing stm32l1xx_tim.o(i.TIM_OC4PreloadConfig), (26 bytes).
    Removing stm32l1xx_tim.o(i.TIM_OCStructInit), (12 bytes).
    Removing stm32l1xx_tim.o(i.TIM_PWMIConfig), (124 bytes).
    Removing stm32l1xx_tim.o(i.TIM_PrescalerConfig), (6 bytes).
    Removing stm32l1xx_tim.o(i.TIM_RemapConfig), (22 bytes).
    Removing stm32l1xx_tim.o(i.TIM_SelectCCDMA), (24 bytes).
    Removing stm32l1xx_tim.o(i.TIM_SelectHallSensor), (24 bytes).
    Removing stm32l1xx_tim.o(i.TIM_SelectInputTrigger), (18 bytes).
    Removing stm32l1xx_tim.o(i.TIM_SelectMasterSlaveMode), (18 bytes).
    Removing stm32l1xx_tim.o(i.TIM_SelectOCREFClear), (18 bytes).
    Removing stm32l1xx_tim.o(i.TIM_SelectOCxM), (82 bytes).
    Removing stm32l1xx_tim.o(i.TIM_SelectOnePulseMode), (18 bytes).
    Removing stm32l1xx_tim.o(i.TIM_SelectOutputTrigger), (18 bytes).
    Removing stm32l1xx_tim.o(i.TIM_SelectSlaveMode), (18 bytes).
    Removing stm32l1xx_tim.o(i.TIM_SetAutoreload), (4 bytes).
    Removing stm32l1xx_tim.o(i.TIM_SetClockDivision), (18 bytes).
    Removing stm32l1xx_tim.o(i.TIM_SetCompare1), (4 bytes).
    Removing stm32l1xx_tim.o(i.TIM_SetCompare2), (4 bytes).
    Removing stm32l1xx_tim.o(i.TIM_SetCompare3), (4 bytes).
    Removing stm32l1xx_tim.o(i.TIM_SetCompare4), (4 bytes).
    Removing stm32l1xx_tim.o(i.TIM_SetCounter), (4 bytes).
    Removing stm32l1xx_tim.o(i.TIM_SetIC1Prescaler), (18 bytes).
    Removing stm32l1xx_tim.o(i.TIM_SetIC2Prescaler), (26 bytes).
    Removing stm32l1xx_tim.o(i.TIM_SetIC3Prescaler), (18 bytes).
    Removing stm32l1xx_tim.o(i.TIM_SetIC4Prescaler), (26 bytes).
    Removing stm32l1xx_tim.o(i.TIM_TIxExternalClockConfig), (62 bytes).
    Removing stm32l1xx_tim.o(i.TIM_TimeBaseStructInit), (16 bytes).
    Removing stm32l1xx_tim.o(i.TIM_UpdateDisableConfig), (24 bytes).
    Removing stm32l1xx_tim.o(i.TIM_UpdateRequestConfig), (24 bytes).
    Removing stm32l1xx_syscfg.o(i.SYSCFG_DeInit), (20 bytes).
    Removing stm32l1xx_syscfg.o(i.SYSCFG_GetBootMode), (16 bytes).
    Removing stm32l1xx_syscfg.o(i.SYSCFG_MemoryRemapConfig), (12 bytes).
    Removing stm32l1xx_syscfg.o(i.SYSCFG_RIChannelSpeedConfig), (32 bytes).
    Removing stm32l1xx_syscfg.o(i.SYSCFG_RIDeInit), (36 bytes).
    Removing stm32l1xx_syscfg.o(i.SYSCFG_RIHysteresisConfig), (272 bytes).
    Removing stm32l1xx_syscfg.o(i.SYSCFG_RIIOSwitchConfig), (76 bytes).
    Removing stm32l1xx_syscfg.o(i.SYSCFG_RIResistorConfig), (32 bytes).
    Removing stm32l1xx_syscfg.o(i.SYSCFG_RISwitchControlModeCmd), (36 bytes).
    Removing stm32l1xx_syscfg.o(i.SYSCFG_RITIMInputCaptureConfig), (92 bytes).
    Removing stm32l1xx_syscfg.o(i.SYSCFG_RITIMSelect), (24 bytes).
    Removing stm32l1xx_syscfg.o(i.SYSCFG_USBPuCmd), (36 bytes).
    Removing stm32l1xx_spi.o(i.I2S_Cmd), (24 bytes).
    Removing stm32l1xx_spi.o(i.I2S_Init), (212 bytes).
    Removing stm32l1xx_spi.o(i.I2S_StructInit), (20 bytes).
    Removing stm32l1xx_spi.o(i.SPI_BiDirectionalLineConfig), (28 bytes).
    Removing stm32l1xx_spi.o(i.SPI_CalculateCRC), (24 bytes).
    Removing stm32l1xx_spi.o(i.SPI_DataSizeConfig), (18 bytes).
    Removing stm32l1xx_spi.o(i.SPI_GetCRC), (16 bytes).
    Removing stm32l1xx_spi.o(i.SPI_GetCRCPolynomial), (6 bytes).
    Removing stm32l1xx_spi.o(i.SPI_I2S_ClearFlag), (6 bytes).
    Removing stm32l1xx_spi.o(i.SPI_I2S_ClearITPendingBit), (20 bytes).
    Removing stm32l1xx_spi.o(i.SPI_I2S_DMACmd), (18 bytes).
    Removing stm32l1xx_spi.o(i.SPI_I2S_DeInit), (88 bytes).
    Removing stm32l1xx_spi.o(i.SPI_I2S_GetITStatus), (52 bytes).
    Removing stm32l1xx_spi.o(i.SPI_I2S_ITConfig), (32 bytes).
    Removing stm32l1xx_spi.o(i.SPI_NSSInternalSoftwareConfig), (30 bytes).
    Removing stm32l1xx_spi.o(i.SPI_SSOutputCmd), (24 bytes).
    Removing stm32l1xx_spi.o(i.SPI_StructInit), (24 bytes).
    Removing stm32l1xx_spi.o(i.SPI_TransmitCRC), (10 bytes).
    Removing stm32l1xx_dbgmcu.o(i.DBGMCU_APB1PeriphConfig), (32 bytes).
    Removing stm32l1xx_dbgmcu.o(i.DBGMCU_APB2PeriphConfig), (32 bytes).
    Removing stm32l1xx_dbgmcu.o(i.DBGMCU_GetDEVID), (16 bytes).
    Removing stm32l1xx_dbgmcu.o(i.DBGMCU_GetREVID), (12 bytes).
    Removing stm32l1xx_hal_msp.o(.rev16_text), (4 bytes).
    Removing stm32l1xx_hal_msp.o(.revsh_text), (4 bytes).
    Removing stm32l1xx_hal_msp.o(i.HAL_UART_MspDeInit), (56 bytes).
    Removing freemodbus.o(i.HISTORY_DATA_READ), (18 bytes).
    Removing freemodbus.o(i.PARAM_DATA_READ), (18 bytes).
    Removing freemodbus.o(i.PARAM_DATA_WRITE), (18 bytes).
    Removing freemodbus.o(i.REALDATA_DATA_READ), (18 bytes).
    Removing freemodbus.o(i.Relay_Config), (2 bytes).
    Removing freemodbus.o(i.STORAGE_DATA_READ), (18 bytes).
    Removing bsp_init.o(i.GPIO_ReConfig), (252 bytes).
    Removing bsp_init.o(i.WakeUp_GPIO_Config), (116 bytes).
    Removing bsp_exti_key.o(i.KeyDeal), (612 bytes).
    Removing bsp_exti_key.o(i.test_Printf), (340 bytes).
    Removing bsp_lcd.o(i.Convert), (60 bytes).
    Removing bsp_lcd.o(i.Display_LOW), (52 bytes).
    Removing bsp_lcd.o(i.Display_Signal), (368 bytes).
    Removing bsp_lcd.o(i.LCD_GLASS_ClearChar), (144 bytes).
    Removing bsp_lcd.o(i.LCD_GLASS_DisplayChar), (32 bytes).
    Removing bsp_lcd.o(i.LCD_GLASS_WriteChar), (172 bytes).
    Removing bsp_lcd.o(i.LcdTest), (64 bytes).
    Removing bsp_lcd.o(.data), (36 bytes).
    Removing bsp_usart.o(i.fgetc), (32 bytes).
    Removing bsp_spi_flash.o(i.Buffercmp), (36 bytes).
    Removing bsp_spi_flash.o(i.Delay), (18 bytes).
    Removing bsp_spi_flash.o(i.SPI_FLASH_BulkErase), (40 bytes).
    Removing bsp_spi_flash.o(i.SPI_FLASH_ReadByte), (10 bytes).
    Removing bsp_spi_flash.o(i.SPI_FLASH_ReadDeviceID), (60 bytes).
    Removing bsp_spi_flash.o(i.SPI_FLASH_ReadID), (80 bytes).
    Removing bsp_spi_flash.o(i.SPI_FLASH_SendHalfWord), (52 bytes).
    Removing bsp_spi_flash.o(i.SPI_FLASH_StartReadSequence), (48 bytes).
    Removing bsp_spi_flash.o(i.SPI_FLASH_Test), (408 bytes).
    Removing bsp_spi_flash.o(i.SPI_Flash_PowerDown), (32 bytes).
    Removing bsp_spi_flash.o(i.SPI_Flash_WAKEUP), (32 bytes).
    Removing bsp_spi_flash.o(.bss), (26 bytes).
    Removing bsp_spi_flash.o(.data), (37 bytes).
    Removing bsp_i2c.o(i.AI2C_Read), (184 bytes).
    Removing bsp_i2c.o(i.AI2C_Write), (152 bytes).
    Removing bsp_i2c.o(i.RTC8025_ClearDALE), (280 bytes).
    Removing bsp_class.o(i.U16ToValue10), (10 bytes).
    Removing bsp_class.o(i.hex_2_ascii), (100 bytes).
    Removing bsp_rtc.o(i.DateToSeconds), (112 bytes).
    Removing bsp_rtc.o(i.ReadRX8025Control2), (22 bytes).
    Removing bsp_rtc.o(i.Reset_Time), (52 bytes).
    Removing bsp_storagedata.o(i.DownFlash_HisData), (236 bytes).
    Removing bsp_storagedata.o(i.ReadFlashHisData), (2404 bytes).
    Removing bsp_storagedata.o(i.ReadFramHisDataToRam), (188 bytes).
    Removing bsp_storagedata.o(.constdata), (76 bytes).
    Removing bsp_lowpowerdeal.o(i.EnterLowPower), (60 bytes).
    Removing bsp_lowpowerdeal.o(i.EnterStopModePowerDeal), (200 bytes).
    Removing stm32l1xx_hal_cortex.o(.rev16_text), (4 bytes).
    Removing stm32l1xx_hal_cortex.o(.revsh_text), (4 bytes).
    Removing stm32l1xx_hal_cortex.o(i.HAL_MPU_ConfigRegion), (92 bytes).
    Removing stm32l1xx_hal_cortex.o(i.HAL_NVIC_ClearPendingIRQ), (28 bytes).
    Removing stm32l1xx_hal_cortex.o(i.HAL_NVIC_DisableIRQ), (28 bytes).
    Removing stm32l1xx_hal_cortex.o(i.HAL_NVIC_GetActive), (40 bytes).
    Removing stm32l1xx_hal_cortex.o(i.HAL_NVIC_GetPendingIRQ), (40 bytes).
    Removing stm32l1xx_hal_cortex.o(i.HAL_NVIC_GetPriority), (148 bytes).
    Removing stm32l1xx_hal_cortex.o(i.HAL_NVIC_GetPriorityGrouping), (8 bytes).
    Removing stm32l1xx_hal_cortex.o(i.HAL_NVIC_SetPendingIRQ), (28 bytes).
    Removing stm32l1xx_hal_cortex.o(i.HAL_NVIC_SetPriorityGrouping), (40 bytes).
    Removing stm32l1xx_hal_cortex.o(i.HAL_NVIC_SystemReset), (44 bytes).
    Removing stm32l1xx_hal_cortex.o(i.HAL_SYSTICK_CLKSourceConfig), (40 bytes).
    Removing stm32l1xx_hal_cortex.o(i.HAL_SYSTICK_Callback), (2 bytes).
    Removing stm32l1xx_hal_cortex.o(i.HAL_SYSTICK_Config), (52 bytes).
    Removing stm32l1xx_hal_cortex.o(i.HAL_SYSTICK_IRQHandler), (8 bytes).
    Removing stm32l1xx_hal_gpio.o(.rev16_text), (4 bytes).
    Removing stm32l1xx_hal_gpio.o(.revsh_text), (4 bytes).
    Removing stm32l1xx_hal_gpio.o(i.HAL_GPIO_DeInit), (300 bytes).
    Removing stm32l1xx_hal_gpio.o(i.HAL_GPIO_EXTI_Callback), (2 bytes).
    Removing stm32l1xx_hal_gpio.o(i.HAL_GPIO_EXTI_IRQHandler), (28 bytes).
    Removing stm32l1xx_hal_gpio.o(i.HAL_GPIO_LockPin), (46 bytes).
    Removing stm32l1xx_hal_gpio.o(i.HAL_GPIO_ReadPin), (16 bytes).
    Removing stm32l1xx_hal_gpio.o(i.HAL_GPIO_TogglePin), (8 bytes).
    Removing stm32l1xx_hal_gpio.o(i.HAL_GPIO_WritePin), (12 bytes).
    Removing port.o(i.vMBDelay), (10 bytes).
    Removing mb.o(i.eMBClose), (40 bytes).
    Removing mb.o(i.eMBDisable), (52 bytes).
    Removing mb.o(i.eMBRegisterCB), (144 bytes).
    Removing mbfuncother.o(i.eMBSetSlaveID), (120 bytes).
    Removing portserial.o(.rev16_text), (4 bytes).
    Removing portserial.o(.revsh_text), (4 bytes).
    Removing porttimer.o(.rev16_text), (4 bytes).
    Removing porttimer.o(.revsh_text), (4 bytes).
    Removing porttimer.o(i.prvvTIMERISR), (8 bytes).
    Removing stm32l1xx_hal_tim.o(.rev16_text), (4 bytes).
    Removing stm32l1xx_hal_tim.o(.revsh_text), (4 bytes).
    Removing stm32l1xx_hal_tim.o(i.HAL_TIM_Base_DeInit), (60 bytes).
    Removing stm32l1xx_hal_tim.o(i.HAL_TIM_Base_GetState), (8 bytes).
    Removing stm32l1xx_hal_tim.o(i.HAL_TIM_Base_MspDeInit), (2 bytes).
    Removing stm32l1xx_hal_tim.o(i.HAL_TIM_Base_MspInit), (2 bytes).
    Removing stm32l1xx_hal_tim.o(i.HAL_TIM_Base_Start), (30 bytes).
    Removing stm32l1xx_hal_tim.o(i.HAL_TIM_Base_Start_DMA), (112 bytes).
    Removing stm32l1xx_hal_tim.o(i.HAL_TIM_Base_Stop), (46 bytes).
    Removing stm32l1xx_hal_tim.o(i.HAL_TIM_Base_Stop_DMA), (52 bytes).
    Removing stm32l1xx_hal_tim.o(i.HAL_TIM_ConfigClockSource), (306 bytes).
    Removing stm32l1xx_hal_tim.o(i.HAL_TIM_ConfigOCrefClear), (292 bytes).
    Removing stm32l1xx_hal_tim.o(i.HAL_TIM_ConfigTI1Input), (24 bytes).
    Removing stm32l1xx_hal_tim.o(i.HAL_TIM_DMABurst_ReadStart), (348 bytes).
    Removing stm32l1xx_hal_tim.o(i.HAL_TIM_DMABurst_ReadStop), (114 bytes).
    Removing stm32l1xx_hal_tim.o(i.HAL_TIM_DMABurst_WriteStart), (348 bytes).
    Removing stm32l1xx_hal_tim.o(i.HAL_TIM_DMABurst_WriteStop), (114 bytes).
    Removing stm32l1xx_hal_tim.o(i.HAL_TIM_Encoder_DeInit), (60 bytes).
    Removing stm32l1xx_hal_tim.o(i.HAL_TIM_Encoder_GetState), (8 bytes).
    Removing stm32l1xx_hal_tim.o(i.HAL_TIM_Encoder_Init), (180 bytes).
    Removing stm32l1xx_hal_tim.o(i.HAL_TIM_Encoder_MspDeInit), (2 bytes).
    Removing stm32l1xx_hal_tim.o(i.HAL_TIM_Encoder_MspInit), (2 bytes).
    Removing stm32l1xx_hal_tim.o(i.HAL_TIM_Encoder_Start), (78 bytes).
    Removing stm32l1xx_hal_tim.o(i.HAL_TIM_Encoder_Start_DMA), (336 bytes).
    Removing stm32l1xx_hal_tim.o(i.HAL_TIM_Encoder_Start_IT), (126 bytes).
    Removing stm32l1xx_hal_tim.o(i.HAL_TIM_Encoder_Stop), (94 bytes).
    Removing stm32l1xx_hal_tim.o(i.HAL_TIM_Encoder_Stop_DMA), (142 bytes).
    Removing stm32l1xx_hal_tim.o(i.HAL_TIM_Encoder_Stop_IT), (142 bytes).
    Removing stm32l1xx_hal_tim.o(i.HAL_TIM_ErrorCallback), (2 bytes).
    Removing stm32l1xx_hal_tim.o(i.HAL_TIM_GenerateEvent), (54 bytes).
    Removing stm32l1xx_hal_tim.o(i.HAL_TIM_IC_ConfigChannel), (224 bytes).
    Removing stm32l1xx_hal_tim.o(i.HAL_TIM_IC_DeInit), (60 bytes).
    Removing stm32l1xx_hal_tim.o(i.HAL_TIM_IC_GetState), (8 bytes).
    Removing stm32l1xx_hal_tim.o(i.HAL_TIM_IC_Init), (52 bytes).
    Removing stm32l1xx_hal_tim.o(i.HAL_TIM_IC_MspDeInit), (2 bytes).
    Removing stm32l1xx_hal_tim.o(i.HAL_TIM_IC_MspInit), (2 bytes).
    Removing stm32l1xx_hal_tim.o(i.HAL_TIM_IC_Start), (32 bytes).
    Removing stm32l1xx_hal_tim.o(i.HAL_TIM_IC_Start_DMA), (276 bytes).
    Removing stm32l1xx_hal_tim.o(i.HAL_TIM_IC_Start_IT), (108 bytes).
    Removing stm32l1xx_hal_tim.o(i.HAL_TIM_IC_Stop), (48 bytes).
    Removing stm32l1xx_hal_tim.o(i.HAL_TIM_IC_Stop_DMA), (130 bytes).
    Removing stm32l1xx_hal_tim.o(i.HAL_TIM_IC_Stop_IT), (124 bytes).
    Removing stm32l1xx_hal_tim.o(i.HAL_TIM_OC_ConfigChannel), (116 bytes).
    Removing stm32l1xx_hal_tim.o(i.HAL_TIM_OC_DeInit), (60 bytes).
    Removing stm32l1xx_hal_tim.o(i.HAL_TIM_OC_GetState), (8 bytes).
    Removing stm32l1xx_hal_tim.o(i.HAL_TIM_OC_Init), (52 bytes).
    Removing stm32l1xx_hal_tim.o(i.HAL_TIM_OC_MspDeInit), (2 bytes).
    Removing stm32l1xx_hal_tim.o(i.HAL_TIM_OC_MspInit), (2 bytes).
    Removing stm32l1xx_hal_tim.o(i.HAL_TIM_OC_Start), (32 bytes).
    Removing stm32l1xx_hal_tim.o(i.HAL_TIM_OC_Start_DMA), (276 bytes).
    Removing stm32l1xx_hal_tim.o(i.HAL_TIM_OC_Start_IT), (108 bytes).
    Removing stm32l1xx_hal_tim.o(i.HAL_TIM_OC_Stop), (48 bytes).
    Removing stm32l1xx_hal_tim.o(i.HAL_TIM_OC_Stop_DMA), (130 bytes).
    Removing stm32l1xx_hal_tim.o(i.HAL_TIM_OC_Stop_IT), (124 bytes).
    Removing stm32l1xx_hal_tim.o(i.HAL_TIM_OnePulse_ConfigChannel), (278 bytes).
    Removing stm32l1xx_hal_tim.o(i.HAL_TIM_OnePulse_DeInit), (60 bytes).
    Removing stm32l1xx_hal_tim.o(i.HAL_TIM_OnePulse_GetState), (8 bytes).
    Removing stm32l1xx_hal_tim.o(i.HAL_TIM_OnePulse_Init), (76 bytes).
    Removing stm32l1xx_hal_tim.o(i.HAL_TIM_OnePulse_MspDeInit), (2 bytes).
    Removing stm32l1xx_hal_tim.o(i.HAL_TIM_OnePulse_MspInit), (2 bytes).
    Removing stm32l1xx_hal_tim.o(i.HAL_TIM_OnePulse_Start), (30 bytes).
    Removing stm32l1xx_hal_tim.o(i.HAL_TIM_OnePulse_Start_IT), (54 bytes).
    Removing stm32l1xx_hal_tim.o(i.HAL_TIM_OnePulse_Stop), (58 bytes).
    Removing stm32l1xx_hal_tim.o(i.HAL_TIM_OnePulse_Stop_IT), (82 bytes).
    Removing stm32l1xx_hal_tim.o(i.HAL_TIM_PWM_ConfigChannel), (264 bytes).
    Removing stm32l1xx_hal_tim.o(i.HAL_TIM_PWM_DeInit), (60 bytes).
    Removing stm32l1xx_hal_tim.o(i.HAL_TIM_PWM_GetState), (8 bytes).
    Removing stm32l1xx_hal_tim.o(i.HAL_TIM_PWM_Init), (52 bytes).
    Removing stm32l1xx_hal_tim.o(i.HAL_TIM_PWM_MspDeInit), (2 bytes).
    Removing stm32l1xx_hal_tim.o(i.HAL_TIM_PWM_MspInit), (2 bytes).
    Removing stm32l1xx_hal_tim.o(i.HAL_TIM_PWM_Start), (32 bytes).
    Removing stm32l1xx_hal_tim.o(i.HAL_TIM_PWM_Start_DMA), (276 bytes).
    Removing stm32l1xx_hal_tim.o(i.HAL_TIM_PWM_Start_IT), (108 bytes).
    Removing stm32l1xx_hal_tim.o(i.HAL_TIM_PWM_Stop), (54 bytes).
    Removing stm32l1xx_hal_tim.o(i.HAL_TIM_PWM_Stop_DMA), (130 bytes).
    Removing stm32l1xx_hal_tim.o(i.HAL_TIM_PWM_Stop_IT), (124 bytes).
    Removing stm32l1xx_hal_tim.o(i.HAL_TIM_PeriodElapsedCallback), (2 bytes).
    Removing stm32l1xx_hal_tim.o(i.HAL_TIM_ReadCapturedValue), (84 bytes).
    Removing stm32l1xx_hal_tim.o(i.HAL_TIM_SlaveConfigSynchronization), (86 bytes).
    Removing stm32l1xx_hal_tim.o(i.HAL_TIM_SlaveConfigSynchronization_IT), (86 bytes).
    Removing stm32l1xx_hal_tim.o(i.TIM_CCxChannelCmd), (28 bytes).
    Removing stm32l1xx_hal_tim.o(i.TIM_DMACaptureCplt), (70 bytes).
    Removing stm32l1xx_hal_tim.o(i.TIM_DMADelayPulseCplt), (70 bytes).
    Removing stm32l1xx_hal_tim.o(i.TIM_DMAError), (20 bytes).
    Removing stm32l1xx_hal_tim.o(i.TIM_DMAPeriodElapsedCplt), (20 bytes).
    Removing stm32l1xx_hal_tim.o(i.TIM_DMATriggerCplt), (20 bytes).
    Removing stm32l1xx_hal_tim.o(i.TIM_ETR_SetConfig), (24 bytes).
    Removing stm32l1xx_hal_tim.o(i.TIM_ITRx_SetConfig), (20 bytes).
    Removing stm32l1xx_hal_tim.o(i.TIM_OC1_SetConfig), (54 bytes).
    Removing stm32l1xx_hal_tim.o(i.TIM_OC2_SetConfig), (58 bytes).
    Removing stm32l1xx_hal_tim.o(i.TIM_OC3_SetConfig), (56 bytes).
    Removing stm32l1xx_hal_tim.o(i.TIM_OC4_SetConfig), (58 bytes).
    Removing stm32l1xx_hal_tim.o(i.TIM_SlaveTimer_SetConfig), (162 bytes).
    Removing stm32l1xx_hal_tim.o(i.TIM_TI1_ConfigInputStage), (42 bytes).
    Removing stm32l1xx_hal_tim.o(i.TIM_TI1_SetConfig), (108 bytes).
    Removing stm32l1xx_hal_tim.o(i.TIM_TI2_ConfigInputStage), (44 bytes).
    Removing stm32l1xx_hal_tim.o(i.TIM_TI2_SetConfig), (62 bytes).
    Removing stm32l1xx_hal_tim.o(i.TIM_TI3_SetConfig), (60 bytes).
    Removing stm32l1xx_hal_tim.o(i.TIM_TI4_SetConfig), (64 bytes).
    Removing stm32l1xx_hal_uart.o(.rev16_text), (4 bytes).
    Removing stm32l1xx_hal_uart.o(.revsh_text), (4 bytes).
    Removing stm32l1xx_hal_uart.o(i.HAL_HalfDuplex_EnableReceiver), (64 bytes).
    Removing stm32l1xx_hal_uart.o(i.HAL_HalfDuplex_EnableTransmitter), (66 bytes).
    Removing stm32l1xx_hal_uart.o(i.HAL_HalfDuplex_Init), (114 bytes).
    Removing stm32l1xx_hal_uart.o(i.HAL_LIN_Init), (130 bytes).
    Removing stm32l1xx_hal_uart.o(i.HAL_LIN_SendBreak), (62 bytes).
    Removing stm32l1xx_hal_uart.o(i.HAL_MultiProcessor_EnterMuteMode), (62 bytes).
    Removing stm32l1xx_hal_uart.o(i.HAL_MultiProcessor_ExitMuteMode), (62 bytes).
    Removing stm32l1xx_hal_uart.o(i.HAL_MultiProcessor_Init), (134 bytes).
    Removing stm32l1xx_hal_uart.o(i.HAL_UART_DMAPause), (118 bytes).
    Removing stm32l1xx_hal_uart.o(i.HAL_UART_DMAResume), (156 bytes).
    Removing stm32l1xx_hal_uart.o(i.HAL_UART_DMAStop), (46 bytes).
    Removing stm32l1xx_hal_uart.o(i.HAL_UART_DeInit), (68 bytes).
    Removing stm32l1xx_hal_uart.o(i.HAL_UART_GetError), (6 bytes).
    Removing stm32l1xx_hal_uart.o(i.HAL_UART_GetState), (8 bytes).
    Removing stm32l1xx_hal_uart.o(i.HAL_UART_IRQHandler), (272 bytes).
    Removing stm32l1xx_hal_uart.o(i.HAL_UART_MspDeInit), (2 bytes).
    Removing stm32l1xx_hal_uart.o(i.HAL_UART_MspInit), (2 bytes).
    Removing stm32l1xx_hal_uart.o(i.HAL_UART_Receive), (248 bytes).
    Removing stm32l1xx_hal_uart.o(i.HAL_UART_Receive_DMA), (160 bytes).
    Removing stm32l1xx_hal_uart.o(i.HAL_UART_RxCpltCallback), (2 bytes).
    Removing stm32l1xx_hal_uart.o(i.HAL_UART_RxHalfCpltCallback), (2 bytes).
    Removing stm32l1xx_hal_uart.o(i.HAL_UART_Transmit), (240 bytes).
    Removing stm32l1xx_hal_uart.o(i.HAL_UART_Transmit_DMA), (168 bytes).
    Removing stm32l1xx_hal_uart.o(i.HAL_UART_Transmit_IT), (122 bytes).
    Removing stm32l1xx_hal_uart.o(i.HAL_UART_TxCpltCallback), (2 bytes).
    Removing stm32l1xx_hal_uart.o(i.HAL_UART_TxHalfCpltCallback), (2 bytes).
    Removing stm32l1xx_hal_uart.o(i.UART_DMAError), (34 bytes).
    Removing stm32l1xx_hal_uart.o(i.UART_DMAReceiveCplt), (62 bytes).
    Removing stm32l1xx_hal_uart.o(i.UART_DMARxHalfCplt), (14 bytes).
    Removing stm32l1xx_hal_uart.o(i.UART_DMATransmitCplt), (76 bytes).
    Removing stm32l1xx_hal_uart.o(i.UART_DMATxHalfCplt), (14 bytes).
    Removing stm32l1xx_hal_uart.o(i.UART_EndTransmit_IT), (60 bytes).
    Removing stm32l1xx_hal_uart.o(i.UART_Receive_IT), (140 bytes).
    Removing stm32l1xx_hal_uart.o(i.UART_Transmit_IT), (114 bytes).
    Removing stm32l1xx_hal_uart.o(i.UART_WaitOnFlagUntilTimeout), (250 bytes).
    Removing stm32l1xx_hal.o(.rev16_text), (4 bytes).
    Removing stm32l1xx_hal.o(.revsh_text), (4 bytes).
    Removing stm32l1xx_hal.o(i.HAL_DBGMCU_DisableDBGSleepMode), (20 bytes).
    Removing stm32l1xx_hal.o(i.HAL_DBGMCU_DisableDBGStandbyMode), (20 bytes).
    Removing stm32l1xx_hal.o(i.HAL_DBGMCU_DisableDBGStopMode), (20 bytes).
    Removing stm32l1xx_hal.o(i.HAL_DBGMCU_EnableDBGSleepMode), (20 bytes).
    Removing stm32l1xx_hal.o(i.HAL_DBGMCU_EnableDBGStandbyMode), (20 bytes).
    Removing stm32l1xx_hal.o(i.HAL_DBGMCU_EnableDBGStopMode), (20 bytes).
    Removing stm32l1xx_hal.o(i.HAL_DeInit), (48 bytes).
    Removing stm32l1xx_hal.o(i.HAL_Delay), (26 bytes).
    Removing stm32l1xx_hal.o(i.HAL_GetDEVID), (16 bytes).
    Removing stm32l1xx_hal.o(i.HAL_GetHalVersion), (8 bytes).
    Removing stm32l1xx_hal.o(i.HAL_GetREVID), (12 bytes).
    Removing stm32l1xx_hal.o(i.HAL_GetTick), (12 bytes).
    Removing stm32l1xx_hal.o(i.HAL_IncTick), (16 bytes).
    Removing stm32l1xx_hal.o(i.HAL_Init), (52 bytes).
    Removing stm32l1xx_hal.o(i.HAL_InitTick), (36 bytes).
    Removing stm32l1xx_hal.o(i.HAL_MspDeInit), (2 bytes).
    Removing stm32l1xx_hal.o(i.HAL_MspInit), (2 bytes).
    Removing stm32l1xx_hal.o(i.HAL_ResumeTick), (18 bytes).
    Removing stm32l1xx_hal.o(i.HAL_SuspendTick), (18 bytes).
    Removing stm32l1xx_hal.o(.data), (4 bytes).
    Removing stm32l1xx_hal_dma.o(.rev16_text), (4 bytes).
    Removing stm32l1xx_hal_dma.o(.revsh_text), (4 bytes).
    Removing stm32l1xx_hal_dma.o(i.DMA_SetConfig), (32 bytes).
    Removing stm32l1xx_hal_dma.o(i.HAL_DMA_Abort), (96 bytes).
    Removing stm32l1xx_hal_dma.o(i.HAL_DMA_DeInit), (368 bytes).
    Removing stm32l1xx_hal_dma.o(i.HAL_DMA_GetError), (6 bytes).
    Removing stm32l1xx_hal_dma.o(i.HAL_DMA_GetState), (8 bytes).
    Removing stm32l1xx_hal_dma.o(i.HAL_DMA_IRQHandler), (784 bytes).
    Removing stm32l1xx_hal_dma.o(i.HAL_DMA_Init), (84 bytes).
    Removing stm32l1xx_hal_dma.o(i.HAL_DMA_PollForTransfer), (736 bytes).
    Removing stm32l1xx_hal_dma.o(i.HAL_DMA_Start), (82 bytes).
    Removing stm32l1xx_hal_dma.o(i.HAL_DMA_Start_IT), (118 bytes).
    Removing stm32l1xx_hal_rcc.o(.rev16_text), (4 bytes).
    Removing stm32l1xx_hal_rcc.o(.revsh_text), (4 bytes).
    Removing stm32l1xx_hal_rcc.o(i.HAL_RCC_CSSCallback), (2 bytes).
    Removing stm32l1xx_hal_rcc.o(i.HAL_RCC_ClockConfig), (1188 bytes).
    Removing stm32l1xx_hal_rcc.o(i.HAL_RCC_DeInit), (140 bytes).
    Removing stm32l1xx_hal_rcc.o(i.HAL_RCC_DisableCSS), (28 bytes).
    Removing stm32l1xx_hal_rcc.o(i.HAL_RCC_EnableCSS), (24 bytes).
    Removing stm32l1xx_hal_rcc.o(i.HAL_RCC_GetClockConfig), (68 bytes).
    Removing stm32l1xx_hal_rcc.o(i.HAL_RCC_GetOscConfig), (292 bytes).
    Removing stm32l1xx_hal_rcc.o(i.HAL_RCC_MCOConfig), (100 bytes).
    Removing stm32l1xx_hal_rcc.o(i.HAL_RCC_NMI_IRQHandler), (32 bytes).
    Removing stm32l1xx_hal_rcc.o(i.HAL_RCC_OscConfig), (2540 bytes).
    Removing stm32l1xx_hal_rcc.o(i.RCC_SetFlashLatencyFromMSIRange), (168 bytes).
    Removing stm32l1xx_hal_pwr_ex.o(.rev16_text), (4 bytes).
    Removing stm32l1xx_hal_pwr_ex.o(.revsh_text), (4 bytes).
    Removing stm32l1xx_hal_pwr_ex.o(i.HAL_PWREx_DisableFastWakeUp), (28 bytes).
    Removing stm32l1xx_hal_pwr_ex.o(i.HAL_PWREx_DisableLowPowerRunMode), (40 bytes).
    Removing stm32l1xx_hal_pwr_ex.o(i.HAL_PWREx_DisableUltraLowPower), (28 bytes).
    Removing stm32l1xx_hal_pwr_ex.o(i.HAL_PWREx_EnableFastWakeUp), (24 bytes).
    Removing stm32l1xx_hal_pwr_ex.o(i.HAL_PWREx_EnableLowPowerRunMode), (36 bytes).
    Removing stm32l1xx_hal_pwr_ex.o(i.HAL_PWREx_EnableUltraLowPower), (24 bytes).
    Removing stm32l1xx_hal_pwr_ex.o(i.HAL_PWREx_GetVoltageRange), (16 bytes).

565 unused section(s) (total 38833 bytes) removed from the image.

==============================================================================

Image Symbol Table

    Local Symbols

    Symbol Name                              Value     Ov Type        Size  Object(Section)

    ../clib/../cmprslib/zerorunl2.c          0x00000000   Number         0  __dczerorl2.o ABSOLUTE
    ../clib/microlib/division.c              0x00000000   Number         0  uldiv.o ABSOLUTE
    ../clib/microlib/division.c              0x00000000   Number         0  uidiv.o ABSOLUTE
    ../clib/microlib/init/entry.s            0x00000000   Number         0  entry.o ABSOLUTE
    ../clib/microlib/init/entry.s            0x00000000   Number         0  entry8b.o ABSOLUTE
    ../clib/microlib/init/entry.s            0x00000000   Number         0  entry9a.o ABSOLUTE
    ../clib/microlib/init/entry.s            0x00000000   Number         0  entry9b.o ABSOLUTE
    ../clib/microlib/init/entry.s            0x00000000   Number         0  entry10a.o ABSOLUTE
    ../clib/microlib/init/entry.s            0x00000000   Number         0  entry8a.o ABSOLUTE
    ../clib/microlib/init/entry.s            0x00000000   Number         0  entry10b.o ABSOLUTE
    ../clib/microlib/init/entry.s            0x00000000   Number         0  entry7b.o ABSOLUTE
    ../clib/microlib/init/entry.s            0x00000000   Number         0  entry7a.o ABSOLUTE
    ../clib/microlib/init/entry.s            0x00000000   Number         0  entry11a.o ABSOLUTE
    ../clib/microlib/init/entry.s            0x00000000   Number         0  entry11b.o ABSOLUTE
    ../clib/microlib/init/entry.s            0x00000000   Number         0  entry5.o ABSOLUTE
    ../clib/microlib/init/entry.s            0x00000000   Number         0  entry2.o ABSOLUTE
    ../clib/microlib/longlong.c              0x00000000   Number         0  llsshr.o ABSOLUTE
    ../clib/microlib/longlong.c              0x00000000   Number         0  llshl.o ABSOLUTE
    ../clib/microlib/longlong.c              0x00000000   Number         0  llushr.o ABSOLUTE
    ../clib/microlib/printf/printf.c         0x00000000   Number         0  printf0.o ABSOLUTE
    ../clib/microlib/printf/printf.c         0x00000000   Number         0  printfb.o ABSOLUTE
    ../clib/microlib/printf/printf.c         0x00000000   Number         0  printf3.o ABSOLUTE
    ../clib/microlib/printf/printf.c         0x00000000   Number         0  printfa.o ABSOLUTE
    ../clib/microlib/printf/printf.c         0x00000000   Number         0  printf1.o ABSOLUTE
    ../clib/microlib/printf/printf.c         0x00000000   Number         0  printf8.o ABSOLUTE
    ../clib/microlib/printf/printf.c         0x00000000   Number         0  printf7.o ABSOLUTE
    ../clib/microlib/printf/printf.c         0x00000000   Number         0  printf6.o ABSOLUTE
    ../clib/microlib/printf/printf.c         0x00000000   Number         0  printf4.o ABSOLUTE
    ../clib/microlib/printf/printf.c         0x00000000   Number         0  printf2.o ABSOLUTE
    ../clib/microlib/printf/printf.c         0x00000000   Number         0  printf5.o ABSOLUTE
    ../clib/microlib/printf/stubs.s          0x00000000   Number         0  stubs.o ABSOLUTE
    ../clib/microlib/stdio/streams.c         0x00000000   Number         0  stdout.o ABSOLUTE
    ../clib/microlib/string/memcpy.c         0x00000000   Number         0  memcpyb.o ABSOLUTE
    ../clib/microlib/string/memcpy.c         0x00000000   Number         0  memcpya.o ABSOLUTE
    ../clib/microlib/string/memset.c         0x00000000   Number         0  memseta.o ABSOLUTE
    ../clib/microlib/stubs.s                 0x00000000   Number         0  iusefp.o ABSOLUTE
    ../fplib/microlib/d2f.c                  0x00000000   Number         0  d2f.o ABSOLUTE
    ../fplib/microlib/f2d.c                  0x00000000   Number         0  f2d.o ABSOLUTE
    ../fplib/microlib/fpadd.c                0x00000000   Number         0  fadd.o ABSOLUTE
    ../fplib/microlib/fpadd.c                0x00000000   Number         0  dadd.o ABSOLUTE
    ../fplib/microlib/fpdiv.c                0x00000000   Number         0  fdiv.o ABSOLUTE
    ../fplib/microlib/fpdiv.c                0x00000000   Number         0  ddiv.o ABSOLUTE
    ../fplib/microlib/fpepilogue.c           0x00000000   Number         0  depilogue.o ABSOLUTE
    ../fplib/microlib/fpepilogue.c           0x00000000   Number         0  fepilogue.o ABSOLUTE
    ../fplib/microlib/fpfix.c                0x00000000   Number         0  ffixui.o ABSOLUTE
    ../fplib/microlib/fpfix.c                0x00000000   Number         0  dfixul.o ABSOLUTE
    ../fplib/microlib/fpflt.c                0x00000000   Number         0  fflti.o ABSOLUTE
    ../fplib/microlib/fpflt.c                0x00000000   Number         0  ffltui.o ABSOLUTE
    ../fplib/microlib/fpmul.c                0x00000000   Number         0  fmul.o ABSOLUTE
    ../fplib/microlib/fpmul.c                0x00000000   Number         0  dmul.o ABSOLUTE
    ..\BTBusLibraries\Src\freemodbus.c       0x00000000   Number         0  freemodbus.o ABSOLUTE
    ..\BTBusLibraries\Src\stm32l1xx_hal_msp.c 0x00000000   Number         0  stm32l1xx_hal_msp.o ABSOLUTE
    ..\FreeModbus\modbus\functions\mbfunccoils.c 0x00000000   Number         0  mbfunccoils.o ABSOLUTE
    ..\FreeModbus\modbus\functions\mbfuncdisc.c 0x00000000   Number         0  mbfuncdisc.o ABSOLUTE
    ..\FreeModbus\modbus\functions\mbfunchistory.c 0x00000000   Number         0  mbfunchistory.o ABSOLUTE
    ..\FreeModbus\modbus\functions\mbfuncholding.c 0x00000000   Number         0  mbfuncholding.o ABSOLUTE
    ..\FreeModbus\modbus\functions\mbfuncinput.c 0x00000000   Number         0  mbfuncinput.o ABSOLUTE
    ..\FreeModbus\modbus\functions\mbfuncother.c 0x00000000   Number         0  mbfuncother.o ABSOLUTE
    ..\FreeModbus\modbus\functions\mbfuncrealdata.c 0x00000000   Number         0  mbfuncrealdata.o ABSOLUTE
    ..\FreeModbus\modbus\functions\mbutils.c 0x00000000   Number         0  mbutils.o ABSOLUTE
    ..\FreeModbus\modbus\mb.c                0x00000000   Number         0  mb.o ABSOLUTE
    ..\FreeModbus\modbus\rtu\mbcrc.c         0x00000000   Number         0  mbcrc.o ABSOLUTE
    ..\FreeModbus\modbus\rtu\mbrtu.c         0x00000000   Number         0  mbrtu.o ABSOLUTE
    ..\HAL_Drivers\STM32L1xx_HAL_Driver\Src\stm32l1xx_hal.c 0x00000000   Number         0  stm32l1xx_hal.o ABSOLUTE
    ..\HAL_Drivers\STM32L1xx_HAL_Driver\Src\stm32l1xx_hal_cortex.c 0x00000000   Number         0  stm32l1xx_hal_cortex.o ABSOLUTE
    ..\HAL_Drivers\STM32L1xx_HAL_Driver\Src\stm32l1xx_hal_dma.c 0x00000000   Number         0  stm32l1xx_hal_dma.o ABSOLUTE
    ..\HAL_Drivers\STM32L1xx_HAL_Driver\Src\stm32l1xx_hal_gpio.c 0x00000000   Number         0  stm32l1xx_hal_gpio.o ABSOLUTE
    ..\HAL_Drivers\STM32L1xx_HAL_Driver\Src\stm32l1xx_hal_pwr_ex.c 0x00000000   Number         0  stm32l1xx_hal_pwr_ex.o ABSOLUTE
    ..\HAL_Drivers\STM32L1xx_HAL_Driver\Src\stm32l1xx_hal_rcc.c 0x00000000   Number         0  stm32l1xx_hal_rcc.o ABSOLUTE
    ..\HAL_Drivers\STM32L1xx_HAL_Driver\Src\stm32l1xx_hal_tim.c 0x00000000   Number         0  stm32l1xx_hal_tim.o ABSOLUTE
    ..\HAL_Drivers\STM32L1xx_HAL_Driver\Src\stm32l1xx_hal_uart.c 0x00000000   Number         0  stm32l1xx_hal_uart.o ABSOLUTE
    ..\Libraries\CMSIC\core_cm3.c            0x00000000   Number         0  core_cm3.o ABSOLUTE
    ..\Libraries\CMSIC\startup\startup_stm32l1xx_hd.s 0x00000000   Number         0  startup_stm32l1xx_hd.o ABSOLUTE
    ..\Libraries\CMSIC\system_stm32l1xx.c    0x00000000   Number         0  system_stm32l1xx.o ABSOLUTE
    ..\Libraries\src\misc.c                  0x00000000   Number         0  misc.o ABSOLUTE
    ..\Libraries\src\stm32l1xx_adc.c         0x00000000   Number         0  stm32l1xx_adc.o ABSOLUTE
    ..\Libraries\src\stm32l1xx_dbgmcu.c      0x00000000   Number         0  stm32l1xx_dbgmcu.o ABSOLUTE
    ..\Libraries\src\stm32l1xx_dma.c         0x00000000   Number         0  stm32l1xx_dma.o ABSOLUTE
    ..\Libraries\src\stm32l1xx_exti.c        0x00000000   Number         0  stm32l1xx_exti.o ABSOLUTE
    ..\Libraries\src\stm32l1xx_gpio.c        0x00000000   Number         0  stm32l1xx_gpio.o ABSOLUTE
    ..\Libraries\src\stm32l1xx_lcd.c         0x00000000   Number         0  stm32l1xx_lcd.o ABSOLUTE
    ..\Libraries\src\stm32l1xx_pwr.c         0x00000000   Number         0  stm32l1xx_pwr.o ABSOLUTE
    ..\Libraries\src\stm32l1xx_rcc.c         0x00000000   Number         0  stm32l1xx_rcc.o ABSOLUTE
    ..\Libraries\src\stm32l1xx_rtc.c         0x00000000   Number         0  stm32l1xx_rtc.o ABSOLUTE
    ..\Libraries\src\stm32l1xx_spi.c         0x00000000   Number         0  stm32l1xx_spi.o ABSOLUTE
    ..\Libraries\src\stm32l1xx_syscfg.c      0x00000000   Number         0  stm32l1xx_syscfg.o ABSOLUTE
    ..\Libraries\src\stm32l1xx_tim.c         0x00000000   Number         0  stm32l1xx_tim.o ABSOLUTE
    ..\Libraries\src\stm32l1xx_usart.c       0x00000000   Number         0  stm32l1xx_usart.o ABSOLUTE
    ..\User\LowPowerConsumption\bsp_LowPowerDeal.c 0x00000000   Number         0  bsp_lowpowerdeal.o ABSOLUTE
    ..\User\SysTick\bsp_SysTick.c            0x00000000   Number         0  bsp_systick.o ABSOLUTE
    ..\User\global.c                         0x00000000   Number         0  global.o ABSOLUTE
    ..\User\init\bsp_init.c                  0x00000000   Number         0  bsp_init.o ABSOLUTE
    ..\User\logical-layer\bsp_alarmdeal.c    0x00000000   Number         0  bsp_alarmdeal.o ABSOLUTE
    ..\User\logical-layer\bsp_bootstop.c     0x00000000   Number         0  bsp_bootstop.o ABSOLUTE
    ..\User\logical-layer\bsp_class.c        0x00000000   Number         0  bsp_class.o ABSOLUTE
    ..\User\logical-layer\bsp_datadeal.c     0x00000000   Number         0  bsp_datadeal.o ABSOLUTE
    ..\User\logical-layer\bsp_datasampledeal.c 0x00000000   Number         0  bsp_datasampledeal.o ABSOLUTE
    ..\User\logical-layer\bsp_powerdeal.c    0x00000000   Number         0  bsp_powerdeal.o ABSOLUTE
    ..\User\logical-layer\bsp_serialdeal.c   0x00000000   Number         0  bsp_serialdeal.o ABSOLUTE
    ..\User\logical-layer\bsp_storagedata.c  0x00000000   Number         0  bsp_storagedata.o ABSOLUTE
    ..\User\main.c                           0x00000000   Number         0  main.o ABSOLUTE
    ..\User\peripherals\src\bsp_adc.c        0x00000000   Number         0  bsp_adc.o ABSOLUTE
    ..\User\peripherals\src\bsp_exti_key.c   0x00000000   Number         0  bsp_exti_key.o ABSOLUTE
    ..\User\peripherals\src\bsp_i2c.c        0x00000000   Number         0  bsp_i2c.o ABSOLUTE
    ..\User\peripherals\src\bsp_lcd.c        0x00000000   Number         0  bsp_lcd.o ABSOLUTE
    ..\User\peripherals\src\bsp_rtc.c        0x00000000   Number         0  bsp_rtc.o ABSOLUTE
    ..\User\peripherals\src\bsp_spi_flash.c  0x00000000   Number         0  bsp_spi_flash.o ABSOLUTE
    ..\User\peripherals\src\bsp_timer.c      0x00000000   Number         0  bsp_timer.o ABSOLUTE
    ..\User\peripherals\src\bsp_usart.c      0x00000000   Number         0  bsp_usart.o ABSOLUTE
    ..\User\stm32l1xx_it.c                   0x00000000   Number         0  stm32l1xx_it.o ABSOLUTE
    ..\\BTBusLibraries\\Src\\stm32l1xx_hal_msp.c 0x00000000   Number         0  stm32l1xx_hal_msp.o ABSOLUTE
    ..\\HAL_Drivers\\STM32L1xx_HAL_Driver\\Src\\stm32l1xx_hal.c 0x00000000   Number         0  stm32l1xx_hal.o ABSOLUTE
    ..\\HAL_Drivers\\STM32L1xx_HAL_Driver\\Src\\stm32l1xx_hal_cortex.c 0x00000000   Number         0  stm32l1xx_hal_cortex.o ABSOLUTE
    ..\\HAL_Drivers\\STM32L1xx_HAL_Driver\\Src\\stm32l1xx_hal_dma.c 0x00000000   Number         0  stm32l1xx_hal_dma.o ABSOLUTE
    ..\\HAL_Drivers\\STM32L1xx_HAL_Driver\\Src\\stm32l1xx_hal_gpio.c 0x00000000   Number         0  stm32l1xx_hal_gpio.o ABSOLUTE
    ..\\HAL_Drivers\\STM32L1xx_HAL_Driver\\Src\\stm32l1xx_hal_pwr_ex.c 0x00000000   Number         0  stm32l1xx_hal_pwr_ex.o ABSOLUTE
    ..\\HAL_Drivers\\STM32L1xx_HAL_Driver\\Src\\stm32l1xx_hal_rcc.c 0x00000000   Number         0  stm32l1xx_hal_rcc.o ABSOLUTE
    ..\\HAL_Drivers\\STM32L1xx_HAL_Driver\\Src\\stm32l1xx_hal_tim.c 0x00000000   Number         0  stm32l1xx_hal_tim.o ABSOLUTE
    ..\\HAL_Drivers\\STM32L1xx_HAL_Driver\\Src\\stm32l1xx_hal_uart.c 0x00000000   Number         0  stm32l1xx_hal_uart.o ABSOLUTE
    ..\\Libraries\\CMSIC\\core_cm3.c         0x00000000   Number         0  core_cm3.o ABSOLUTE
    ..\\mbport\\portserial.c                 0x00000000   Number         0  portserial.o ABSOLUTE
    ..\\mbport\\porttimer.c                  0x00000000   Number         0  porttimer.o ABSOLUTE
    ..\mbport\port.c                         0x00000000   Number         0  port.o ABSOLUTE
    ..\mbport\portevent.c                    0x00000000   Number         0  portevent.o ABSOLUTE
    ..\mbport\portserial.c                   0x00000000   Number         0  portserial.o ABSOLUTE
    ..\mbport\porttimer.c                    0x00000000   Number         0  porttimer.o ABSOLUTE
    cdcmple.s                                0x00000000   Number         0  cdcmple.o ABSOLUTE
    cdrcmple.s                               0x00000000   Number         0  cdrcmple.o ABSOLUTE
    cfcmple.s                                0x00000000   Number         0  cfcmple.o ABSOLUTE
    cfrcmple.s                               0x00000000   Number         0  cfrcmple.o ABSOLUTE
    dc.s                                     0x00000000   Number         0  dc.o ABSOLUTE
    handlers.s                               0x00000000   Number         0  handlers.o ABSOLUTE
    init.s                                   0x00000000   Number         0  init.o ABSOLUTE
    RESET                                    0x08000000   Section      292  startup_stm32l1xx_hd.o(RESET)
    .ARM.Collect$$$$00000000                 0x08000124   Section        0  entry.o(.ARM.Collect$$$$00000000)
    .ARM.Collect$$$$00000001                 0x08000124   Section        4  entry2.o(.ARM.Collect$$$$00000001)
    .ARM.Collect$$$$00000004                 0x08000128   Section        4  entry5.o(.ARM.Collect$$$$00000004)
    .ARM.Collect$$$$00000008                 0x0800012c   Section        0  entry7b.o(.ARM.Collect$$$$00000008)
    .ARM.Collect$$$$0000000A                 0x0800012c   Section        0  entry8b.o(.ARM.Collect$$$$0000000A)
    .ARM.Collect$$$$0000000B                 0x0800012c   Section        8  entry9a.o(.ARM.Collect$$$$0000000B)
    .ARM.Collect$$$$0000000D                 0x08000134   Section        0  entry10a.o(.ARM.Collect$$$$0000000D)
    .ARM.Collect$$$$0000000F                 0x08000134   Section        0  entry11a.o(.ARM.Collect$$$$0000000F)
    .ARM.Collect$$$$00002712                 0x08000134   Section        4  entry2.o(.ARM.Collect$$$$00002712)
    __lit__00000000                          0x08000134   Data           4  entry2.o(.ARM.Collect$$$$00002712)
    .text                                    0x08000138   Section       36  startup_stm32l1xx_hd.o(.text)
    .text                                    0x0800015c   Section        0  memcpya.o(.text)
    .text                                    0x08000180   Section        0  memseta.o(.text)
    .text                                    0x080001a4   Section        0  fadd.o(.text)
    .text                                    0x08000254   Section        0  fmul.o(.text)
    .text                                    0x080002c0   Section        0  fdiv.o(.text)
    .text                                    0x08000340   Section        0  dadd.o(.text)
    .text                                    0x0800048e   Section        0  dmul.o(.text)
    .text                                    0x08000572   Section        0  ddiv.o(.text)
    .text                                    0x08000650   Section        0  fflti.o(.text)
    .text                                    0x08000662   Section        0  ffltui.o(.text)
    .text                                    0x0800066c   Section        0  ffixui.o(.text)
    .text                                    0x08000694   Section        0  f2d.o(.text)
    .text                                    0x080006bc   Section       40  cdcmple.o(.text)
    .text                                    0x080006e4   Section       40  cdrcmple.o(.text)
    .text                                    0x0800070c   Section        0  d2f.o(.text)
    .text                                    0x08000744   Section       20  cfcmple.o(.text)
    .text                                    0x08000758   Section       20  cfrcmple.o(.text)
    .text                                    0x0800076c   Section        0  uidiv.o(.text)
    .text                                    0x08000798   Section        0  uldiv.o(.text)
    .text                                    0x080007fa   Section        0  llshl.o(.text)
    .text                                    0x08000818   Section        0  llsshr.o(.text)
    .text                                    0x0800083c   Section        0  fepilogue.o(.text)
    .text                                    0x0800083c   Section        0  iusefp.o(.text)
    .text                                    0x080008a8   Section        0  depilogue.o(.text)
    .text                                    0x08000966   Section        0  dfixul.o(.text)
    .text                                    0x08000998   Section       36  init.o(.text)
    .text                                    0x080009bc   Section        0  llushr.o(.text)
    .text                                    0x080009dc   Section        0  __dczerorl2.o(.text)
    i.ADC1_GPIO_Config                       0x08000a38   Section        0  bsp_adc.o(i.ADC1_GPIO_Config)
    ADC1_GPIO_Config                         0x08000a39   Thumb Code    72  bsp_adc.o(i.ADC1_GPIO_Config)
    i.ADC1_Init                              0x08000a88   Section        0  bsp_adc.o(i.ADC1_Init)
    i.ADC1_Mode_Config                       0x08000aa8   Section        0  bsp_adc.o(i.ADC1_Mode_Config)
    ADC1_Mode_Config                         0x08000aa9   Thumb Code   284  bsp_adc.o(i.ADC1_Mode_Config)
    i.ADC_Cmd                                0x08000bd0   Section        0  stm32l1xx_adc.o(i.ADC_Cmd)
    i.ADC_DMACmd                             0x08000be6   Section        0  stm32l1xx_adc.o(i.ADC_DMACmd)
    i.ADC_DMARequestAfterLastTransferCmd     0x08000bfc   Section        0  stm32l1xx_adc.o(i.ADC_DMARequestAfterLastTransferCmd)
    i.ADC_DeInit                             0x08000c14   Section        0  stm32l1xx_adc.o(i.ADC_DeInit)
    i.ADC_GetFlagStatus                      0x08000c34   Section        0  stm32l1xx_adc.o(i.ADC_GetFlagStatus)
    i.ADC_Init                               0x08000c48   Section        0  stm32l1xx_adc.o(i.ADC_Init)
    i.ADC_RegularChannelConfig               0x08000c9c   Section        0  stm32l1xx_adc.o(i.ADC_RegularChannelConfig)
    i.ADC_SoftwareStartConv                  0x08000df4   Section        0  stm32l1xx_adc.o(i.ADC_SoftwareStartConv)
    i.ADC_StructInit                         0x08000dfe   Section        0  stm32l1xx_adc.o(i.ADC_StructInit)
    i.Ack                                    0x08000e18   Section        0  bsp_i2c.o(i.Ack)
    i.AlarmAction                            0x08000e68   Section        0  bsp_alarmdeal.o(i.AlarmAction)
    AlarmAction                              0x08000e69   Thumb Code   178  bsp_alarmdeal.o(i.AlarmAction)
    i.AlarmConfDataUpdate                    0x08000f28   Section        0  bsp_serialdeal.o(i.AlarmConfDataUpdate)
    AlarmConfDataUpdate                      0x08000f29   Thumb Code    22  bsp_serialdeal.o(i.AlarmConfDataUpdate)
    i.AlarmDeal                              0x08000f48   Section        0  bsp_alarmdeal.o(i.AlarmDeal)
    i.BatteryVoltageDeal                     0x08001204   Section        0  bsp_powerdeal.o(i.BatteryVoltageDeal)
    i.BatteryVoltageSampleDataDeal           0x080012dc   Section        0  bsp_powerdeal.o(i.BatteryVoltageSampleDataDeal)
    BatteryVoltageSampleDataDeal             0x080012dd   Thumb Code   454  bsp_powerdeal.o(i.BatteryVoltageSampleDataDeal)
    i.BellNn                                 0x080014bc   Section        0  bsp_alarmdeal.o(i.BellNn)
    i.BellNn_longer                          0x080014f4   Section        0  bsp_alarmdeal.o(i.BellNn_longer)
    i.BusFault_Handler                       0x0800152c   Section        0  stm32l1xx_it.o(i.BusFault_Handler)
    i.Button_Config                          0x08001530   Section        0  freemodbus.o(i.Button_Config)
    i.Button_Poll                            0x08001534   Section        0  freemodbus.o(i.Button_Poll)
    i.Change3BytesTimeToLong                 0x08001540   Section        0  bsp_class.o(i.Change3BytesTimeToLong)
    i.ChannelDataDeal                        0x0800155c   Section        0  bsp_storagedata.o(i.ChannelDataDeal)
    ChannelDataDeal                          0x0800155d   Thumb Code   352  bsp_storagedata.o(i.ChannelDataDeal)
    i.Char_to_Int                            0x080016d8   Section        0  bsp_class.o(i.Char_to_Int)
    i.CloseAlarm                             0x080016e0   Section        0  bsp_alarmdeal.o(i.CloseAlarm)
    CloseAlarm                               0x080016e1   Thumb Code    40  bsp_alarmdeal.o(i.CloseAlarm)
    i.DBGMCU_Config                          0x08001710   Section        0  stm32l1xx_dbgmcu.o(i.DBGMCU_Config)
    i.DMA_Cmd                                0x08001730   Section        0  stm32l1xx_dma.o(i.DMA_Cmd)
    i.DMA_DeInit                             0x08001748   Section        0  stm32l1xx_dma.o(i.DMA_DeInit)
    i.DMA_GetFlagStatus                      0x08001894   Section        0  stm32l1xx_dma.o(i.DMA_GetFlagStatus)
    i.DMA_Init                               0x080018c0   Section        0  stm32l1xx_dma.o(i.DMA_Init)
    i.DebugMon_Handler                       0x080018fc   Section        0  stm32l1xx_it.o(i.DebugMon_Handler)
    i.Delay                                  0x080018fe   Section        0  bsp_i2c.o(i.Delay)
    Delay                                    0x080018ff   Thumb Code     2  bsp_i2c.o(i.Delay)
    i.Delay_ms                               0x08001900   Section        0  bsp_systick.o(i.Delay_ms)
    i.Display_ChannelValue                   0x08001928   Section        0  bsp_lcd.o(i.Display_ChannelValue)
    i.Display_Mem                            0x080019c8   Section        0  bsp_lcd.o(i.Display_Mem)
    i.Display_NUL                            0x08001bc0   Section        0  bsp_lcd.o(i.Display_NUL)
    i.Display_SN                             0x08001be8   Section        0  bsp_lcd.o(i.Display_SN)
    i.DoGatherChannelDataFloat               0x08001d08   Section        0  bsp_datasampledeal.o(i.DoGatherChannelDataFloat)
    DoGatherChannelDataFloat                 0x08001d09   Thumb Code    56  bsp_datasampledeal.o(i.DoGatherChannelDataFloat)
    i.EXTI0_IRQHandler                       0x08001d4c   Section        0  stm32l1xx_it.o(i.EXTI0_IRQHandler)
    i.EXTI15_10_Config                       0x08001dc8   Section        0  bsp_exti_key.o(i.EXTI15_10_Config)
    i.EXTI15_10_IRQHandler                   0x08001e40   Section        0  stm32l1xx_it.o(i.EXTI15_10_IRQHandler)
    i.EXTI_ClearITPendingBit                 0x08001f20   Section        0  stm32l1xx_exti.o(i.EXTI_ClearITPendingBit)
    i.EXTI_GetITStatus                       0x08001f2c   Section        0  stm32l1xx_exti.o(i.EXTI_GetITStatus)
    i.EXTI_Init                              0x08001f44   Section        0  stm32l1xx_exti.o(i.EXTI_Init)
    i.EnterCriticalSection                   0x08001fd8   Section        0  port.o(i.EnterCriticalSection)
    i.Error_Handler                          0x08001fdc   Section        0  freemodbus.o(i.Error_Handler)
    i.ExitCriticalSection                    0x08001fe0   Section        0  port.o(i.ExitCriticalSection)
    i.ExternalPowerDetection                 0x08001fe4   Section        0  bsp_powerdeal.o(i.ExternalPowerDetection)
    i.FirstCheckExternPower                  0x080022d8   Section        0  bsp_powerdeal.o(i.FirstCheckExternPower)
    i.FirstScanSysData                       0x0800231c   Section        0  bsp_init.o(i.FirstScanSysData)
    FirstScanSysData                         0x0800231d   Thumb Code    68  bsp_init.o(i.FirstScanSysData)
    i.FisrtPowerOnDisplay                    0x08002368   Section        0  bsp_lcd.o(i.FisrtPowerOnDisplay)
    i.Fram_Read                              0x080023c8   Section        0  bsp_i2c.o(i.Fram_Read)
    i.Fram_Write                             0x08002480   Section        0  bsp_i2c.o(i.Fram_Write)
    i.GPIO_Init                              0x08002518   Section        0  stm32l1xx_gpio.o(i.GPIO_Init)
    i.GPIO_PinAFConfig                       0x0800259c   Section        0  stm32l1xx_gpio.o(i.GPIO_PinAFConfig)
    i.GPIO_ReadInputDataBit                  0x080025e2   Section        0  stm32l1xx_gpio.o(i.GPIO_ReadInputDataBit)
    i.GPIO_ResetBits                         0x080025f4   Section        0  stm32l1xx_gpio.o(i.GPIO_ResetBits)
    i.GPIO_SetBits                           0x080025f8   Section        0  stm32l1xx_gpio.o(i.GPIO_SetBits)
    i.General_GPIO_Config                    0x080025fc   Section        0  bsp_init.o(i.General_GPIO_Config)
    General_GPIO_Config                      0x080025fd   Thumb Code   318  bsp_init.o(i.General_GPIO_Config)
    i.GetRecIntervalTime                     0x08002750   Section        0  bsp_class.o(i.GetRecIntervalTime)
    i.GetStartChanel                         0x080027a4   Section        0  bsp_lcd.o(i.GetStartChanel)
    GetStartChanel                           0x080027a5   Thumb Code    22  bsp_lcd.o(i.GetStartChanel)
    i.HAL_GPIO_Init                          0x080027bc   Section        0  stm32l1xx_hal_gpio.o(i.HAL_GPIO_Init)
    i.HAL_NVIC_EnableIRQ                     0x08002998   Section        0  stm32l1xx_hal_cortex.o(i.HAL_NVIC_EnableIRQ)
    i.HAL_NVIC_SetPriority                   0x080029b4   Section        0  stm32l1xx_hal_cortex.o(i.HAL_NVIC_SetPriority)
    i.HAL_RCC_GetHCLKFreq                    0x08002a30   Section        0  stm32l1xx_hal_rcc.o(i.HAL_RCC_GetHCLKFreq)
    i.HAL_RCC_GetPCLK1Freq                   0x08002a68   Section        0  stm32l1xx_hal_rcc.o(i.HAL_RCC_GetPCLK1Freq)
    i.HAL_RCC_GetPCLK2Freq                   0x08002a94   Section        0  stm32l1xx_hal_rcc.o(i.HAL_RCC_GetPCLK2Freq)
    i.HAL_RCC_GetSysClockFreq                0x08002ac0   Section        0  stm32l1xx_hal_rcc.o(i.HAL_RCC_GetSysClockFreq)
    i.HAL_TIM_Base_Init                      0x08002b7c   Section        0  stm32l1xx_hal_tim.o(i.HAL_TIM_Base_Init)
    i.HAL_TIM_Base_MspInit                   0x08002bb0   Section        0  stm32l1xx_hal_msp.o(i.HAL_TIM_Base_MspInit)
    i.HAL_TIM_Base_Start_IT                  0x08002be8   Section        0  stm32l1xx_hal_tim.o(i.HAL_TIM_Base_Start_IT)
    i.HAL_TIM_Base_Stop_IT                   0x08002c14   Section        0  stm32l1xx_hal_tim.o(i.HAL_TIM_Base_Stop_IT)
    i.HAL_TIM_IC_CaptureCallback             0x08002c4a   Section        0  stm32l1xx_hal_tim.o(i.HAL_TIM_IC_CaptureCallback)
    i.HAL_TIM_IRQHandler                     0x08002c4c   Section        0  stm32l1xx_hal_tim.o(i.HAL_TIM_IRQHandler)
    i.HAL_TIM_OC_DelayElapsedCallback        0x08002d9e   Section        0  stm32l1xx_hal_tim.o(i.HAL_TIM_OC_DelayElapsedCallback)
    i.HAL_TIM_PWM_PulseFinishedCallback      0x08002da0   Section        0  stm32l1xx_hal_tim.o(i.HAL_TIM_PWM_PulseFinishedCallback)
    i.HAL_TIM_PeriodElapsedCallback          0x08002da2   Section        0  porttimer.o(i.HAL_TIM_PeriodElapsedCallback)
    i.HAL_TIM_TriggerCallback                0x08002dac   Section        0  stm32l1xx_hal_tim.o(i.HAL_TIM_TriggerCallback)
    i.HAL_UART_ErrorCallback                 0x08002dae   Section        0  stm32l1xx_hal_uart.o(i.HAL_UART_ErrorCallback)
    i.HAL_UART_Init                          0x08002db0   Section        0  stm32l1xx_hal_uart.o(i.HAL_UART_Init)
    i.HAL_UART_MspInit                       0x08002e20   Section        0  stm32l1xx_hal_msp.o(i.HAL_UART_MspInit)
    i.HAL_UART_Receive_End                   0x08002ec8   Section        0  stm32l1xx_hal_uart.o(i.HAL_UART_Receive_End)
    i.HAL_UART_Receive_IT                    0x08002f08   Section        0  stm32l1xx_hal_uart.o(i.HAL_UART_Receive_IT)
    i.HISTORY_DATA_READ                      0x08002fa0   Section        0  bsp_serialdeal.o(i.HISTORY_DATA_READ)
    i.HardFault_Handler                      0x080030b0   Section        0  stm32l1xx_it.o(i.HardFault_Handler)
    i.HumiChang_to_Shishu                    0x080030b4   Section        0  bsp_datasampledeal.o(i.HumiChang_to_Shishu)
    HumiChang_to_Shishu                      0x080030b5   Thumb Code   498  bsp_datasampledeal.o(i.HumiChang_to_Shishu)
    i.Humi_Adjust                            0x080032b8   Section        0  bsp_datasampledeal.o(i.Humi_Adjust)
    Humi_Adjust                              0x080032b9   Thumb Code   294  bsp_datasampledeal.o(i.Humi_Adjust)
    i.I2C_GPIO_Config                        0x080033f0   Section        0  bsp_init.o(i.I2C_GPIO_Config)
    I2C_GPIO_Config                          0x080033f1   Thumb Code    40  bsp_init.o(i.I2C_GPIO_Config)
    i.JlyConfDataUpData                      0x0800341c   Section        0  bsp_serialdeal.o(i.JlyConfDataUpData)
    JlyConfDataUpData                        0x0800341d   Thumb Code   258  bsp_serialdeal.o(i.JlyConfDataUpData)
    i.JlyOffDeal                             0x08003534   Section        0  bsp_datadeal.o(i.JlyOffDeal)
    JlyOffDeal                               0x08003535   Thumb Code    82  bsp_datadeal.o(i.JlyOffDeal)
    i.JlySecDeal                             0x08003590   Section        0  bsp_datadeal.o(i.JlySecDeal)
    i.JudgingChannelNumberDisplay            0x080035e4   Section        0  bsp_lcd.o(i.JudgingChannelNumberDisplay)
    i.KEY_GPIO_Config                        0x0800362c   Section        0  bsp_exti_key.o(i.KEY_GPIO_Config)
    i.LCD_Cmd                                0x08003654   Section        0  stm32l1xx_lcd.o(i.LCD_Cmd)
    i.LCD_ContrastConfig                     0x08003660   Section        0  stm32l1xx_lcd.o(i.LCD_ContrastConfig)
    i.LCD_GLASS_Clear                        0x0800367c   Section        0  bsp_lcd.o(i.LCD_GLASS_Clear)
    i.LCD_GLASS_Init                         0x080036ac   Section        0  bsp_lcd.o(i.LCD_GLASS_Init)
    i.LCD_GPIOConfig                         0x08003714   Section        0  bsp_lcd.o(i.LCD_GPIOConfig)
    LCD_GPIOConfig                           0x08003715   Thumb Code   542  bsp_lcd.o(i.LCD_GPIOConfig)
    i.LCD_GetFlagStatus                      0x08003948   Section        0  stm32l1xx_lcd.o(i.LCD_GetFlagStatus)
    i.LCD_Init                               0x08003960   Section        0  stm32l1xx_lcd.o(i.LCD_Init)
    i.LCD_PulseOnDurationConfig              0x080039b4   Section        0  stm32l1xx_lcd.o(i.LCD_PulseOnDurationConfig)
    i.LCD_StructInit                         0x080039d0   Section        0  stm32l1xx_lcd.o(i.LCD_StructInit)
    i.LCD_UpdateDisplayRequest               0x080039e0   Section        0  stm32l1xx_lcd.o(i.LCD_UpdateDisplayRequest)
    i.LCD_WaitForSynchro                     0x080039ec   Section        0  stm32l1xx_lcd.o(i.LCD_WaitForSynchro)
    i.LED_Config                             0x08003a0c   Section        0  freemodbus.o(i.LED_Config)
    i.LED_Poll                               0x08003a10   Section        0  freemodbus.o(i.LED_Poll)
    i.LOWorNomalMode                         0x08003a44   Section        0  bsp_datadeal.o(i.LOWorNomalMode)
    LOWorNomalMode                           0x08003a45   Thumb Code    72  bsp_datadeal.o(i.LOWorNomalMode)
    i.Lcd_ChannelValue                       0x08003a98   Section        0  bsp_lcd.o(i.Lcd_ChannelValue)
    i.Lcd_Dis10Value                         0x08003c94   Section        0  bsp_lcd.o(i.Lcd_Dis10Value)
    Lcd_Dis10Value                           0x08003c95   Thumb Code   634  bsp_lcd.o(i.Lcd_Dis10Value)
    i.Lcd_Dis11Value                         0x08003f14   Section        0  bsp_lcd.o(i.Lcd_Dis11Value)
    Lcd_Dis11Value                           0x08003f15   Thumb Code   530  bsp_lcd.o(i.Lcd_Dis11Value)
    i.Lcd_Dis12Value                         0x0800412c   Section        0  bsp_lcd.o(i.Lcd_Dis12Value)
    Lcd_Dis12Value                           0x0800412d   Thumb Code   634  bsp_lcd.o(i.Lcd_Dis12Value)
    i.Lcd_Dis13Value                         0x080043ac   Section        0  bsp_lcd.o(i.Lcd_Dis13Value)
    Lcd_Dis13Value                           0x080043ad   Thumb Code   634  bsp_lcd.o(i.Lcd_Dis13Value)
    i.Lcd_Dis14Value                         0x0800462c   Section        0  bsp_lcd.o(i.Lcd_Dis14Value)
    Lcd_Dis14Value                           0x0800462d   Thumb Code   634  bsp_lcd.o(i.Lcd_Dis14Value)
    i.Lcd_Dis15Value                         0x080048ac   Section        0  bsp_lcd.o(i.Lcd_Dis15Value)
    Lcd_Dis15Value                           0x080048ad   Thumb Code   634  bsp_lcd.o(i.Lcd_Dis15Value)
    i.Lcd_Dis1Value                          0x08004b2c   Section        0  bsp_lcd.o(i.Lcd_Dis1Value)
    Lcd_Dis1Value                            0x08004b2d   Thumb Code   968  bsp_lcd.o(i.Lcd_Dis1Value)
    i.Lcd_Dis2Value                          0x08004ef8   Section        0  bsp_lcd.o(i.Lcd_Dis2Value)
    Lcd_Dis2Value                            0x08004ef9   Thumb Code   846  bsp_lcd.o(i.Lcd_Dis2Value)
    i.Lcd_Dis3Value                          0x0800524c   Section        0  bsp_lcd.o(i.Lcd_Dis3Value)
    Lcd_Dis3Value                            0x0800524d   Thumb Code   984  bsp_lcd.o(i.Lcd_Dis3Value)
    i.Lcd_Dis4Value                          0x0800562c   Section        0  bsp_lcd.o(i.Lcd_Dis4Value)
    Lcd_Dis4Value                            0x0800562d   Thumb Code   894  bsp_lcd.o(i.Lcd_Dis4Value)
    i.Lcd_Dis5Value                          0x080059b0   Section        0  bsp_lcd.o(i.Lcd_Dis5Value)
    Lcd_Dis5Value                            0x080059b1   Thumb Code   572  bsp_lcd.o(i.Lcd_Dis5Value)
    i.Lcd_Dis6Value                          0x08005bf0   Section        0  bsp_lcd.o(i.Lcd_Dis6Value)
    Lcd_Dis6Value                            0x08005bf1   Thumb Code   634  bsp_lcd.o(i.Lcd_Dis6Value)
    i.Lcd_Dis7Value                          0x08005e70   Section        0  bsp_lcd.o(i.Lcd_Dis7Value)
    Lcd_Dis7Value                            0x08005e71   Thumb Code   634  bsp_lcd.o(i.Lcd_Dis7Value)
    i.Lcd_Dis8Value                          0x080060f0   Section        0  bsp_lcd.o(i.Lcd_Dis8Value)
    Lcd_Dis8Value                            0x080060f1   Thumb Code   660  bsp_lcd.o(i.Lcd_Dis8Value)
    i.Lcd_Dis9Value                          0x0800638c   Section        0  bsp_lcd.o(i.Lcd_Dis9Value)
    Lcd_Dis9Value                            0x0800638d   Thumb Code   660  bsp_lcd.o(i.Lcd_Dis9Value)
    i.MemManage_Handler                      0x08006628   Section        0  stm32l1xx_it.o(i.MemManage_Handler)
    i.NMI_Handler                            0x0800662c   Section        0  stm32l1xx_it.o(i.NMI_Handler)
    i.NVIC_Configuration                     0x0800662e   Section        0  bsp_usart.o(i.NVIC_Configuration)
    NVIC_Configuration                       0x0800662f   Thumb Code    42  bsp_usart.o(i.NVIC_Configuration)
    i.NVIC_GetPriorityGrouping               0x08006658   Section        0  stm32l1xx_hal_cortex.o(i.NVIC_GetPriorityGrouping)
    NVIC_GetPriorityGrouping                 0x08006659   Thumb Code    10  stm32l1xx_hal_cortex.o(i.NVIC_GetPriorityGrouping)
    i.NVIC_Init                              0x08006668   Section        0  misc.o(i.NVIC_Init)
    i.NVIC_PriorityGroupConfig               0x080066e0   Section        0  misc.o(i.NVIC_PriorityGroupConfig)
    i.NVIC_SetPriority                       0x080066f4   Section        0  stm32l1xx_hal_cortex.o(i.NVIC_SetPriority)
    NVIC_SetPriority                         0x080066f5   Thumb Code    32  stm32l1xx_hal_cortex.o(i.NVIC_SetPriority)
    i.OffPowerSupply                         0x0800671c   Section        0  bsp_init.o(i.OffPowerSupply)
    i.OneSecTimedeal                         0x08006760   Section        0  bsp_datadeal.o(i.OneSecTimedeal)
    OneSecTimedeal                           0x08006761   Thumb Code   172  bsp_datadeal.o(i.OneSecTimedeal)
    i.PARAM_DATA_READ                        0x08006828   Section        0  bsp_serialdeal.o(i.PARAM_DATA_READ)
    i.PARAM_DATA_WRITE                       0x08006928   Section        0  bsp_serialdeal.o(i.PARAM_DATA_WRITE)
    i.PWR_RTCAccessCmd                       0x08006af0   Section        0  stm32l1xx_pwr.o(i.PWR_RTCAccessCmd)
    i.PendSV_Handler                         0x08006afc   Section        0  stm32l1xx_it.o(i.PendSV_Handler)
    i.PeripheralInit                         0x08006afe   Section        0  bsp_init.o(i.PeripheralInit)
    i.RCC_AHBPeriphClockCmd                  0x08006b34   Section        0  stm32l1xx_rcc.o(i.RCC_AHBPeriphClockCmd)
    i.RCC_APB1PeriphClockCmd                 0x08006b54   Section        0  stm32l1xx_rcc.o(i.RCC_APB1PeriphClockCmd)
    i.RCC_APB2PeriphClockCmd                 0x08006b74   Section        0  stm32l1xx_rcc.o(i.RCC_APB2PeriphClockCmd)
    i.RCC_APB2PeriphResetCmd                 0x08006b94   Section        0  stm32l1xx_rcc.o(i.RCC_APB2PeriphResetCmd)
    i.RCC_GetClocksFreq                      0x08006bb4   Section        0  stm32l1xx_rcc.o(i.RCC_GetClocksFreq)
    i.RCC_GetFlagStatus                      0x08006cb4   Section        0  stm32l1xx_rcc.o(i.RCC_GetFlagStatus)
    i.RCC_GetSYSCLKSource                    0x08006ce8   Section        0  stm32l1xx_rcc.o(i.RCC_GetSYSCLKSource)
    i.RCC_HSEConfig                          0x08006cf8   Section        0  stm32l1xx_rcc.o(i.RCC_HSEConfig)
    i.RCC_HSICmd                             0x08006d08   Section        0  stm32l1xx_rcc.o(i.RCC_HSICmd)
    i.RCC_LSEConfig                          0x08006d14   Section        0  stm32l1xx_rcc.o(i.RCC_LSEConfig)
    i.RCC_LSICmd                             0x08006d24   Section        0  stm32l1xx_rcc.o(i.RCC_LSICmd)
    i.RCC_PLLCmd                             0x08006d30   Section        0  stm32l1xx_rcc.o(i.RCC_PLLCmd)
    i.RCC_RTCCLKCmd                          0x08006d3c   Section        0  stm32l1xx_rcc.o(i.RCC_RTCCLKCmd)
    i.RCC_RTCCLKConfig                       0x08006d48   Section        0  stm32l1xx_rcc.o(i.RCC_RTCCLKConfig)
    i.RCC_SYSCLKConfig                       0x08006d8c   Section        0  stm32l1xx_rcc.o(i.RCC_SYSCLKConfig)
    i.RCC_WaitForHSEStartUp                  0x08006da4   Section        0  stm32l1xx_rcc.o(i.RCC_WaitForHSEStartUp)
    i.REALDATA_DATA_READ                     0x08006ddc   Section        0  bsp_serialdeal.o(i.REALDATA_DATA_READ)
    i.RTC8025_Read                           0x08006e2c   Section        0  bsp_i2c.o(i.RTC8025_Read)
    i.RTC8025_Reset                          0x08006ed4   Section        0  bsp_i2c.o(i.RTC8025_Reset)
    i.RTC8025_Write                          0x080070e8   Section        0  bsp_i2c.o(i.RTC8025_Write)
    i.RTC_Date_Time_To_Second                0x08007170   Section        0  bsp_rtc.o(i.RTC_Date_Time_To_Second)
    i.RTC_Second_To_Date_Time                0x080071f8   Section        0  bsp_rtc.o(i.RTC_Second_To_Date_Time)
    i.RTC_WaitForSynchro                     0x080072c0   Section        0  stm32l1xx_rtc.o(i.RTC_WaitForSynchro)
    i.ReadBatVoltage                         0x08007320   Section        0  bsp_serialdeal.o(i.ReadBatVoltage)
    ReadBatVoltage                           0x08007321   Thumb Code    20  bsp_serialdeal.o(i.ReadBatVoltage)
    i.ReadSetFramFlag                        0x08007338   Section        0  bsp_init.o(i.ReadSetFramFlag)
    i.ReadU16Pointer                         0x08007358   Section        0  bsp_storagedata.o(i.ReadU16Pointer)
    i.ReadU32Pointer                         0x0800736c   Section        0  bsp_storagedata.o(i.ReadU32Pointer)
    i.RecorderBootModeHandle                 0x08007380   Section        0  bsp_bootstop.o(i.RecorderBootModeHandle)
    i.RecorderStopModeHandle                 0x08007614   Section        0  bsp_bootstop.o(i.RecorderStopModeHandle)
    i.RecvByte                               0x08007660   Section        0  bsp_i2c.o(i.RecvByte)
    i.Relay_Poll                             0x080076c8   Section        0  freemodbus.o(i.Relay_Poll)
    i.RtcBcdToD10                            0x080076d4   Section        0  bsp_rtc.o(i.RtcBcdToD10)
    i.RtcD10ToBcd                            0x080077a6   Section        0  bsp_rtc.o(i.RtcD10ToBcd)
    i.SPI_Cmd                                0x0800783a   Section        0  stm32l1xx_spi.o(i.SPI_Cmd)
    i.SPI_FLASH_BufferRead                   0x08007854   Section        0  bsp_spi_flash.o(i.SPI_FLASH_BufferRead)
    i.SPI_FLASH_BufferWrite                  0x080078a4   Section        0  bsp_spi_flash.o(i.SPI_FLASH_BufferWrite)
    i.SPI_FLASH_Init                         0x080079c8   Section        0  bsp_spi_flash.o(i.SPI_FLASH_Init)
    i.SPI_FLASH_PageWrite                    0x08007ad4   Section        0  bsp_spi_flash.o(i.SPI_FLASH_PageWrite)
    i.SPI_FLASH_SectorErase                  0x08007b34   Section        0  bsp_spi_flash.o(i.SPI_FLASH_SectorErase)
    i.SPI_FLASH_SendByte                     0x08007b78   Section        0  bsp_spi_flash.o(i.SPI_FLASH_SendByte)
    i.SPI_FLASH_WaitForWriteEnd              0x08007bb0   Section        0  bsp_spi_flash.o(i.SPI_FLASH_WaitForWriteEnd)
    i.SPI_FLASH_WriteEnable                  0x08007be0   Section        0  bsp_spi_flash.o(i.SPI_FLASH_WriteEnable)
    i.SPI_I2S_GetFlagStatus                  0x08007c00   Section        0  stm32l1xx_spi.o(i.SPI_I2S_GetFlagStatus)
    i.SPI_I2S_ReceiveData                    0x08007c12   Section        0  stm32l1xx_spi.o(i.SPI_I2S_ReceiveData)
    i.SPI_I2S_SendData                       0x08007c18   Section        0  stm32l1xx_spi.o(i.SPI_I2S_SendData)
    i.SPI_Init                               0x08007c1c   Section        0  stm32l1xx_spi.o(i.SPI_Init)
    i.STORAGE_DATA_READ                      0x08007c58   Section        0  bsp_serialdeal.o(i.STORAGE_DATA_READ)
    i.SVC_Handler                            0x08007e3c   Section        0  stm32l1xx_it.o(i.SVC_Handler)
    i.SYSCFG_EXTILineConfig                  0x08007e40   Section        0  stm32l1xx_syscfg.o(i.SYSCFG_EXTILineConfig)
    i.SamplingDataAveraging                  0x08007e80   Section        0  bsp_datasampledeal.o(i.SamplingDataAveraging)
    SamplingDataAveraging                    0x08007e81   Thumb Code    62  bsp_datasampledeal.o(i.SamplingDataAveraging)
    i.SamplingDataDealGather                 0x08007ed0   Section        0  bsp_datasampledeal.o(i.SamplingDataDealGather)
    SamplingDataDealGather                   0x08007ed1   Thumb Code    76  bsp_datasampledeal.o(i.SamplingDataDealGather)
    i.SaveDataOnTimeDeal                     0x08007f30   Section        0  bsp_storagedata.o(i.SaveDataOnTimeDeal)
    i.SaveHisDataToFlash                     0x08007f48   Section        0  bsp_storagedata.o(i.SaveHisDataToFlash)
    SaveHisDataToFlash                       0x08007f49   Thumb Code   456  bsp_storagedata.o(i.SaveHisDataToFlash)
    i.SendByte                               0x08008118   Section        0  bsp_i2c.o(i.SendByte)
    i.SensorDataSampleDealAndBatteryVoltageDeal 0x08008178   Section        0  bsp_datasampledeal.o(i.SensorDataSampleDealAndBatteryVoltageDeal)
    i.SensorTypeDataDeal                     0x08008294   Section        0  bsp_datasampledeal.o(i.SensorTypeDataDeal)
    SensorTypeDataDeal                       0x08008295   Thumb Code   426  bsp_datasampledeal.o(i.SensorTypeDataDeal)
    i.SetFlashOverFlow                       0x08008478   Section        0  bsp_storagedata.o(i.SetFlashOverFlow)
    i.SetJlyParamData                        0x08008494   Section        0  bsp_init.o(i.SetJlyParamData)
    SetJlyParamData                          0x08008495   Thumb Code   352  bsp_init.o(i.SetJlyParamData)
    i.SetJlyParamJudgeSensorTypeChannelSwitch 0x08008604   Section        0  bsp_serialdeal.o(i.SetJlyParamJudgeSensorTypeChannelSwitch)
    SetJlyParamJudgeSensorTypeChannelSwitch  0x08008605   Thumb Code   470  bsp_serialdeal.o(i.SetJlyParamJudgeSensorTypeChannelSwitch)
    i.SetSysClock                            0x080087f0   Section        0  system_stm32l1xx.o(i.SetSysClock)
    SetSysClock                              0x080087f1   Thumb Code   254  system_stm32l1xx.o(i.SetSysClock)
    i.Start                                  0x080088fc   Section        0  bsp_i2c.o(i.Start)
    i.StartAdcSampleData                     0x08008954   Section        0  bsp_datasampledeal.o(i.StartAdcSampleData)
    StartAdcSampleData                       0x08008955   Thumb Code    42  bsp_datasampledeal.o(i.StartAdcSampleData)
    i.Stop                                   0x0800898c   Section        0  bsp_i2c.o(i.Stop)
    i.StorageHistoryData                     0x080089d0   Section        0  bsp_storagedata.o(i.StorageHistoryData)
    i.SysClock_Config                        0x08008a0c   Section        0  bsp_init.o(i.SysClock_Config)
    SysClock_Config                          0x08008a0d   Thumb Code    66  bsp_init.o(i.SysClock_Config)
    i.SysClock_ReConfig                      0x08008a54   Section        0  bsp_init.o(i.SysClock_ReConfig)
    i.SysInit                                0x08008ae4   Section        0  bsp_init.o(i.SysInit)
    i.SysTick_Handler                        0x08008b44   Section        0  stm32l1xx_it.o(i.SysTick_Handler)
    i.SysTick_Init                           0x08008b70   Section        0  bsp_systick.o(i.SysTick_Init)
    i.SystemInit                             0x08008be8   Section        0  system_stm32l1xx.o(i.SystemInit)
    i.TIM2_Configuration                     0x08008c50   Section        0  bsp_timer.o(i.TIM2_Configuration)
    i.TIM2_IRQHandler                        0x08008c9c   Section        0  stm32l1xx_it.o(i.TIM2_IRQHandler)
    i.TIM2_NVIC_Configuration                0x08008d60   Section        0  bsp_timer.o(i.TIM2_NVIC_Configuration)
    TIM2_NVIC_Configuration                  0x08008d61   Thumb Code    42  bsp_timer.o(i.TIM2_NVIC_Configuration)
    i.TIM3_IRQHandler                        0x08008d8c   Section        0  porttimer.o(i.TIM3_IRQHandler)
    i.TIM_Base_SetConfig                     0x08008d9c   Section        0  stm32l1xx_hal_tim.o(i.TIM_Base_SetConfig)
    TIM_Base_SetConfig                       0x08008d9d   Thumb Code    90  stm32l1xx_hal_tim.o(i.TIM_Base_SetConfig)
    i.TIM_ClearFlag                          0x08008e0c   Section        0  stm32l1xx_tim.o(i.TIM_ClearFlag)
    i.TIM_ClearITPendingBit                  0x08008e12   Section        0  stm32l1xx_tim.o(i.TIM_ClearITPendingBit)
    i.TIM_Cmd                                0x08008e18   Section        0  stm32l1xx_tim.o(i.TIM_Cmd)
    i.TIM_GetITStatus                        0x08008e30   Section        0  stm32l1xx_tim.o(i.TIM_GetITStatus)
    i.TIM_ITConfig                           0x08008e52   Section        0  stm32l1xx_tim.o(i.TIM_ITConfig)
    i.TIM_TimeBaseInit                       0x08008e64   Section        0  stm32l1xx_tim.o(i.TIM_TimeBaseInit)
    i.TempChang_to_Shishu                    0x08008ec4   Section        0  bsp_datasampledeal.o(i.TempChang_to_Shishu)
    TempChang_to_Shishu                      0x08008ec5   Thumb Code   498  bsp_datasampledeal.o(i.TempChang_to_Shishu)
    i.Temp_Adjust                            0x080090c8   Section        0  bsp_datasampledeal.o(i.Temp_Adjust)
    Temp_Adjust                              0x080090c9   Thumb Code   534  bsp_datasampledeal.o(i.Temp_Adjust)
    i.TestFramIsOrNotOk                      0x08009300   Section        0  bsp_init.o(i.TestFramIsOrNotOk)
    TestFramIsOrNotOk                        0x08009301   Thumb Code   126  bsp_init.o(i.TestFramIsOrNotOk)
    i.TimingDelay_Decrement                  0x080093b4   Section        0  bsp_systick.o(i.TimingDelay_Decrement)
    i.UART_SetConfig                         0x080093cc   Section        0  stm32l1xx_hal_uart.o(i.UART_SetConfig)
    UART_SetConfig                           0x080093cd   Thumb Code   522  stm32l1xx_hal_uart.o(i.UART_SetConfig)
    i.USART1_Config                          0x080095dc   Section        0  bsp_usart.o(i.USART1_Config)
    i.USART1_IRQHandler                      0x0800967c   Section        0  stm32l1xx_it.o(i.USART1_IRQHandler)
    i.USART3_IRQHandler                      0x080096a4   Section        0  portserial.o(i.USART3_IRQHandler)
    i.USART_Cmd                              0x080097b0   Section        0  stm32l1xx_usart.o(i.USART_Cmd)
    i.USART_GetFlagStatus                    0x080097c8   Section        0  stm32l1xx_usart.o(i.USART_GetFlagStatus)
    i.USART_GetITStatus                      0x080097e2   Section        0  stm32l1xx_usart.o(i.USART_GetITStatus)
    i.USART_ITConfig                         0x08009836   Section        0  stm32l1xx_usart.o(i.USART_ITConfig)
    i.USART_Init                             0x08009880   Section        0  stm32l1xx_usart.o(i.USART_Init)
    i.USART_ReceiveData                      0x0800994c   Section        0  stm32l1xx_usart.o(i.USART_ReceiveData)
    i.USART_SendData                         0x08009956   Section        0  stm32l1xx_usart.o(i.USART_SendData)
    i.UsageFault_Handler                     0x0800995e   Section        0  stm32l1xx_it.o(i.UsageFault_Handler)
    i.ValueFtToU16                           0x08009964   Section        0  bsp_class.o(i.ValueFtToU16)
    i.WaitAck                                0x08009a04   Section        0  bsp_i2c.o(i.WaitAck)
    i.WorkOrNotMode                          0x08009a88   Section        0  bsp_datadeal.o(i.WorkOrNotMode)
    WorkOrNotMode                            0x08009a89   Thumb Code    44  bsp_datadeal.o(i.WorkOrNotMode)
    i.WriteSetFramFlag                       0x08009ac0   Section        0  bsp_init.o(i.WriteSetFramFlag)
    i.WriteU16Pointer                        0x08009ada   Section        0  bsp_storagedata.o(i.WriteU16Pointer)
    i.WriteU32Pointer                        0x08009aee   Section        0  bsp_storagedata.o(i.WriteU32Pointer)
    i.__0printf$8                            0x08009b04   Section        0  printf8.o(i.__0printf$8)
    i.__0vsprintf                            0x08009b24   Section        0  printfa.o(i.__0vsprintf)
    i.__scatterload_copy                     0x08009b48   Section       14  handlers.o(i.__scatterload_copy)
    i.__scatterload_null                     0x08009b56   Section        2  handlers.o(i.__scatterload_null)
    i.__scatterload_zeroinit                 0x08009b58   Section       14  handlers.o(i.__scatterload_zeroinit)
    i._fp_digits                             0x08009b68   Section        0  printfa.o(i._fp_digits)
    _fp_digits                               0x08009b69   Thumb Code   326  printfa.o(i._fp_digits)
    i._printf_core                           0x08009cc4   Section        0  printf8.o(i._printf_core)
    _printf_core                             0x08009cc5   Thumb Code   988  printf8.o(i._printf_core)
    i._printf_core                           0x0800a0cc   Section        0  printfa.o(i._printf_core)
    _printf_core                             0x0800a0cd   Thumb Code  1762  printfa.o(i._printf_core)
    i._printf_post_padding                   0x0800a7bc   Section        0  printf8.o(i._printf_post_padding)
    _printf_post_padding                     0x0800a7bd   Thumb Code    38  printf8.o(i._printf_post_padding)
    i._printf_post_padding                   0x0800a7e2   Section        0  printfa.o(i._printf_post_padding)
    _printf_post_padding                     0x0800a7e3   Thumb Code    38  printfa.o(i._printf_post_padding)
    i._printf_pre_padding                    0x0800a808   Section        0  printf8.o(i._printf_pre_padding)
    _printf_pre_padding                      0x0800a809   Thumb Code    48  printf8.o(i._printf_pre_padding)
    i._printf_pre_padding                    0x0800a838   Section        0  printfa.o(i._printf_pre_padding)
    _printf_pre_padding                      0x0800a839   Thumb Code    48  printfa.o(i._printf_pre_padding)
    i._sputc                                 0x0800a868   Section        0  printfa.o(i._sputc)
    _sputc                                   0x0800a869   Thumb Code    10  printfa.o(i._sputc)
    i.displayDAY                             0x0800a872   Section        0  bsp_lcd.o(i.displayDAY)
    i.displayErr                             0x0800a904   Section        0  bsp_lcd.o(i.displayErr)
    i.displayTIME                            0x0800a97c   Section        0  bsp_lcd.o(i.displayTIME)
    i.displayYEAR                            0x0800aa0c   Section        0  bsp_lcd.o(i.displayYEAR)
    i.eMBEnable                              0x0800aa90   Section        0  mb.o(i.eMBEnable)
    i.eMBFuncReadCoils                       0x0800aab8   Section        0  mbfunccoils.o(i.eMBFuncReadCoils)
    i.eMBFuncReadDiscreteInputs              0x0800ab5e   Section        0  mbfuncdisc.o(i.eMBFuncReadDiscreteInputs)
    i.eMBFuncReadHistoryRegister             0x0800ac02   Section        0  mbfunchistory.o(i.eMBFuncReadHistoryRegister)
    i.eMBFuncReadHoldingRegister             0x0800ac86   Section        0  mbfuncholding.o(i.eMBFuncReadHoldingRegister)
    i.eMBFuncReadInputRegister               0x0800ad0a   Section        0  mbfuncinput.o(i.eMBFuncReadInputRegister)
    i.eMBFuncReadRealDataRegister            0x0800ad8e   Section        0  mbfuncrealdata.o(i.eMBFuncReadRealDataRegister)
    i.eMBFuncReadWriteMultipleHoldingRegister 0x0800ae12   Section        0  mbfuncholding.o(i.eMBFuncReadWriteMultipleHoldingRegister)
    i.eMBFuncReportSlaveID                   0x0800aee8   Section        0  mbfuncother.o(i.eMBFuncReportSlaveID)
    i.eMBFuncWriteCoil                       0x0800af10   Section        0  mbfunccoils.o(i.eMBFuncWriteCoil)
    i.eMBFuncWriteHoldingRegister            0x0800af7c   Section        0  mbfuncholding.o(i.eMBFuncWriteHoldingRegister)
    i.eMBFuncWriteMultipleCoils              0x0800afba   Section        0  mbfunccoils.o(i.eMBFuncWriteMultipleCoils)
    i.eMBFuncWriteMultipleHoldingRegister    0x0800b048   Section        0  mbfuncholding.o(i.eMBFuncWriteMultipleHoldingRegister)
    i.eMBInit                                0x0800b0b4   Section        0  mb.o(i.eMBInit)
    i.eMBPoll                                0x0800b194   Section        0  mb.o(i.eMBPoll)
    i.eMBRTUInit                             0x0800b318   Section        0  mbrtu.o(i.eMBRTUInit)
    i.eMBRTUReceive                          0x0800b370   Section        0  mbrtu.o(i.eMBRTUReceive)
    i.eMBRTUSend                             0x0800b3e0   Section        0  mbrtu.o(i.eMBRTUSend)
    i.eMBRTUStart                            0x0800b490   Section        0  mbrtu.o(i.eMBRTUStart)
    i.eMBRTUStop                             0x0800b4b4   Section        0  mbrtu.o(i.eMBRTUStop)
    i.eMBRegCoilsCB                          0x0800b4cc   Section        0  freemodbus.o(i.eMBRegCoilsCB)
    i.eMBRegDiscreteCB                       0x0800b580   Section        0  freemodbus.o(i.eMBRegDiscreteCB)
    i.eMBRegHistoryCB                        0x0800b5f8   Section        0  freemodbus.o(i.eMBRegHistoryCB)
    i.eMBRegHoldingCB                        0x0800b680   Section        0  freemodbus.o(i.eMBRegHoldingCB)
    i.eMBRegInputCB                          0x0800b76c   Section        0  freemodbus.o(i.eMBRegInputCB)
    i.eMBRegRealDataCB                       0x0800b7f4   Section        0  freemodbus.o(i.eMBRegRealDataCB)
    i.fputc                                  0x0800b888   Section        0  bsp_usart.o(i.fputc)
    i.freemodbus_init                        0x0800b8ac   Section        0  freemodbus.o(i.freemodbus_init)
    i.freemodbus_main                        0x0800b8ce   Section        0  freemodbus.o(i.freemodbus_main)
    i.lcd_OFF                                0x0800b8e8   Section        0  bsp_lcd.o(i.lcd_OFF)
    i.main                                   0x0800ba78   Section        0  main.o(i.main)
    i.prveMBError2Exception                  0x0800ba90   Section        0  mbutils.o(i.prveMBError2Exception)
    i.prvvTIMERExpiredISR                    0x0800bab4   Section        0  porttimer.o(i.prvvTIMERExpiredISR)
    prvvTIMERExpiredISR                      0x0800bab5   Thumb Code    16  porttimer.o(i.prvvTIMERExpiredISR)
    i.prvvUARTRxISR                          0x0800bac8   Section        0  portserial.o(i.prvvUARTRxISR)
    prvvUARTRxISR                            0x0800bac9   Thumb Code    14  portserial.o(i.prvvUARTRxISR)
    i.prvvUARTTxReadyISR                     0x0800badc   Section        0  portserial.o(i.prvvUARTTxReadyISR)
    prvvUARTTxReadyISR                       0x0800badd   Thumb Code    14  portserial.o(i.prvvUARTTxReadyISR)
    i.read_time                              0x0800baf0   Section        0  bsp_rtc.o(i.read_time)
    i.rtc_deel                               0x0800bb74   Section        0  bsp_rtc.o(i.rtc_deel)
    i.serialread_time                        0x0800bcd8   Section        0  bsp_rtc.o(i.serialread_time)
    i.set_time                               0x0800bd28   Section        0  bsp_rtc.o(i.set_time)
    i.usMBCRC16                              0x0800bd80   Section        0  mbcrc.o(i.usMBCRC16)
    i.vMBPortSerialEnable                    0x0800bdb8   Section        0  portserial.o(i.vMBPortSerialEnable)
    i.vMBPortTimersDisable                   0x0800be20   Section        0  porttimer.o(i.vMBPortTimersDisable)
    i.vMBPortTimersEnable                    0x0800be34   Section        0  porttimer.o(i.vMBPortTimersEnable)
    i.xMBOutput                              0x0800be54   Section        0  port.o(i.xMBOutput)
    i.xMBPortEventGet                        0x0800be9c   Section        0  portevent.o(i.xMBPortEventGet)
    i.xMBPortEventInit                       0x0800bec0   Section        0  portevent.o(i.xMBPortEventInit)
    i.xMBPortEventPost                       0x0800bed0   Section        0  portevent.o(i.xMBPortEventPost)
    i.xMBPortSerialGetByte                   0x0800bee8   Section        0  portserial.o(i.xMBPortSerialGetByte)
    i.xMBPortSerialInit                      0x0800bf38   Section        0  portserial.o(i.xMBPortSerialInit)
    i.xMBPortSerialPutByte                   0x0800bf74   Section        0  portserial.o(i.xMBPortSerialPutByte)
    i.xMBPortTimersInit                      0x0800bf98   Section        0  porttimer.o(i.xMBPortTimersInit)
    i.xMBRTUReceiveFSM                       0x0800bff0   Section        0  mbrtu.o(i.xMBRTUReceiveFSM)
    i.xMBRTUTimerT35Expired                  0x0800c078   Section        0  mbrtu.o(i.xMBRTUTimerT35Expired)
    i.xMBRTUTransmitFSM                      0x0800c0b8   Section        0  mbrtu.o(i.xMBRTUTransmitFSM)
    i.xMBUtilGetBits                         0x0800c124   Section        0  mbutils.o(i.xMBUtilGetBits)
    i.xMBUtilSetBits                         0x0800c14e   Section        0  mbutils.o(i.xMBUtilSetBits)
    .constdata                               0x0800c1b0   Section      332  global.o(.constdata)
    .constdata                               0x0800c2fc   Section       54  bsp_datasampledeal.o(.constdata)
    .constdata                               0x0800c332   Section      512  mbcrc.o(.constdata)
    aucCRCHi                                 0x0800c332   Data         256  mbcrc.o(.constdata)
    aucCRCLo                                 0x0800c432   Data         256  mbcrc.o(.constdata)
    .constdata                               0x0800c532   Section       29  stm32l1xx_hal_rcc.o(.constdata)
    .data                                    0x20000000   Section       29  system_stm32l1xx.o(.data)
    .data                                    0x2000001d   Section       25  stm32l1xx_rcc.o(.data)
    PLLMulTable                              0x2000001d   Data           9  stm32l1xx_rcc.o(.data)
    APBAHBPrescTable                         0x20000026   Data          16  stm32l1xx_rcc.o(.data)
    .data                                    0x20000036   Section       12  freemodbus.o(.data)
    .data                                    0x20000044   Section        4  bsp_systick.o(.data)
    .data                                    0x20000048   Section       40  global.o(.data)
    .data                                    0x20000070   Section       72  bsp_rtc.o(.data)
    month                                    0x20000088   Data          48  bsp_rtc.o(.data)
    .data                                    0x200000b8   Section        2  bsp_datasampledeal.o(.data)
    s_FSM                                    0x200000b8   Data           1  bsp_datasampledeal.o(.data)
    SampleMaxCount                           0x200000b9   Data           1  bsp_datasampledeal.o(.data)
    .data                                    0x200000bc   Section      184  mb.o(.data)
    eMBState                                 0x200000bc   Data           1  mb.o(.data)
    xFuncHandlers                            0x200000c0   Data         128  mb.o(.data)
    ucMBFrame                                0x20000140   Data           4  mb.o(.data)
    ucRcvAddress                             0x20000144   Data           1  mb.o(.data)
    ucFunctionCode                           0x20000145   Data           1  mb.o(.data)
    usLength                                 0x20000146   Data           2  mb.o(.data)
    eException                               0x20000148   Data           1  mb.o(.data)
    ucMBAddress                              0x20000149   Data           1  mb.o(.data)
    eMBCurrentMode                           0x2000014a   Data           1  mb.o(.data)
    peMBFrameSendCur                         0x2000014c   Data           4  mb.o(.data)
    pvMBFrameStartCur                        0x20000150   Data           4  mb.o(.data)
    pvMBFrameStopCur                         0x20000154   Data           4  mb.o(.data)
    peMBFrameReceiveCur                      0x20000158   Data           4  mb.o(.data)
    pvMBFrameCloseCur                        0x2000015c   Data           4  mb.o(.data)
    .data                                    0x20000174   Section        2  portevent.o(.data)
    eQueuedEvent                             0x20000174   Data           1  portevent.o(.data)
    xEventInQueue                            0x20000175   Data           1  portevent.o(.data)
    .data                                    0x20000176   Section        2  mbfuncother.o(.data)
    usMBSlaveIDLen                           0x20000176   Data           2  mbfuncother.o(.data)
    .data                                    0x20000178   Section       12  mbrtu.o(.data)
    eSndState                                0x20000178   Data           1  mbrtu.o(.data)
    eRcvState                                0x20000179   Data           1  mbrtu.o(.data)
    pucSndBufferCur                          0x2000017c   Data           4  mbrtu.o(.data)
    usSndBufferCount                         0x20000180   Data           2  mbrtu.o(.data)
    usRcvBufferPos                           0x20000182   Data           2  mbrtu.o(.data)
    .data                                    0x20000184   Section        4  porttimer.o(.data)
    uwPrescalerValue                         0x20000184   Data           4  porttimer.o(.data)
    .data                                    0x20000188   Section        4  stdout.o(.data)
    .bss                                     0x2000018c   Section     2048  freemodbus.o(.bss)
    .bss                                     0x2000098c   Section     3892  global.o(.bss)
    .bss                                     0x200018c0   Section      512  port.o(.bss)
    str                                      0x200018c0   Data         512  port.o(.bss)
    .bss                                     0x20001ac0   Section       32  mbfuncother.o(.bss)
    ucMBSlaveID                              0x20001ac0   Data          32  mbfuncother.o(.bss)
    .bss                                     0x20001ae0   Section      256  mbrtu.o(.bss)
    .bss                                     0x20001be0   Section       74  portserial.o(.bss)
    UartHandle                               0x20001be0   Data          64  portserial.o(.bss)
    SndRecvBuffer                            0x20001c20   Data          10  portserial.o(.bss)
    .bss                                     0x20001c2c   Section       56  porttimer.o(.bss)
    TimHandle                                0x20001c2c   Data          56  porttimer.o(.bss)
    STACK                                    0x20001c68   Section     1024  startup_stm32l1xx_hd.o(STACK)

    Global Symbols

    Symbol Name                              Value     Ov Type        Size  Object(Section)

    BuildAttributes$$THM_ISAv4$P$D$K$B$S$PE$A:L22UL41UL21$X:L11$S22US41US21$IEEE1$IW$USESV6$~STKCKD$USESV7$~SHL$OTIME$ROPI$EBA8$MICROLIB$REQ8$PRES8$EABIv2 0x00000000   Number         0  anon$$obj.o ABSOLUTE
    __ARM_use_no_argv                        0x00000000   Number         0  main.o ABSOLUTE
    _printf_a                                0x00000000   Number         0  stubs.o ABSOLUTE
    _printf_c                                0x00000000   Number         0  stubs.o ABSOLUTE
    _printf_charcount                        0x00000000   Number         0  stubs.o ABSOLUTE
    _printf_d                                0x00000000   Number         0  stubs.o ABSOLUTE
    _printf_e                                0x00000000   Number         0  stubs.o ABSOLUTE
    _printf_f                                0x00000000   Number         0  stubs.o ABSOLUTE
    _printf_flags                            0x00000000   Number         0  stubs.o ABSOLUTE
    _printf_fp_dec                           0x00000000   Number         0  stubs.o ABSOLUTE
    _printf_fp_hex                           0x00000000   Number         0  stubs.o ABSOLUTE
    _printf_g                                0x00000000   Number         0  stubs.o ABSOLUTE
    _printf_i                                0x00000000   Number         0  stubs.o ABSOLUTE
    _printf_int_dec                          0x00000000   Number         0  stubs.o ABSOLUTE
    _printf_l                                0x00000000   Number         0  stubs.o ABSOLUTE
    _printf_lc                               0x00000000   Number         0  stubs.o ABSOLUTE
    _printf_ll                               0x00000000   Number         0  stubs.o ABSOLUTE
    _printf_lld                              0x00000000   Number         0  stubs.o ABSOLUTE
    _printf_lli                              0x00000000   Number         0  stubs.o ABSOLUTE
    _printf_llo                              0x00000000   Number         0  stubs.o ABSOLUTE
    _printf_llu                              0x00000000   Number         0  stubs.o ABSOLUTE
    _printf_llx                              0x00000000   Number         0  stubs.o ABSOLUTE
    _printf_longlong_dec                     0x00000000   Number         0  stubs.o ABSOLUTE
    _printf_longlong_hex                     0x00000000   Number         0  stubs.o ABSOLUTE
    _printf_longlong_oct                     0x00000000   Number         0  stubs.o ABSOLUTE
    _printf_ls                               0x00000000   Number         0  stubs.o ABSOLUTE
    _printf_mbtowc                           0x00000000   Number         0  stubs.o ABSOLUTE
    _printf_n                                0x00000000   Number         0  stubs.o ABSOLUTE
    _printf_o                                0x00000000   Number         0  stubs.o ABSOLUTE
    _printf_p                                0x00000000   Number         0  stubs.o ABSOLUTE
    _printf_percent                          0x00000000   Number         0  stubs.o ABSOLUTE
    _printf_pre_padding                      0x00000000   Number         0  stubs.o ABSOLUTE
    _printf_return_value                     0x00000000   Number         0  stubs.o ABSOLUTE
    _printf_s                                0x00000000   Number         0  stubs.o ABSOLUTE
    _printf_sizespec                         0x00000000   Number         0  stubs.o ABSOLUTE
    _printf_str                              0x00000000   Number         0  stubs.o ABSOLUTE
    _printf_truncate_signed                  0x00000000   Number         0  stubs.o ABSOLUTE
    _printf_truncate_unsigned                0x00000000   Number         0  stubs.o ABSOLUTE
    _printf_u                                0x00000000   Number         0  stubs.o ABSOLUTE
    _printf_wc                               0x00000000   Number         0  stubs.o ABSOLUTE
    _printf_wctomb                           0x00000000   Number         0  stubs.o ABSOLUTE
    _printf_widthprec                        0x00000000   Number         0  stubs.o ABSOLUTE
    _printf_x                                0x00000000   Number         0  stubs.o ABSOLUTE
    __cpp_initialize__aeabi_                  - Undefined Weak Reference
    __cxa_finalize                            - Undefined Weak Reference
    _clock_init                               - Undefined Weak Reference
    _microlib_exit                            - Undefined Weak Reference
    __Vectors_Size                           0x00000124   Number         0  startup_stm32l1xx_hd.o ABSOLUTE
    __Vectors                                0x08000000   Data           4  startup_stm32l1xx_hd.o(RESET)
    __Vectors_End                            0x08000124   Data           0  startup_stm32l1xx_hd.o(RESET)
    __main                                   0x08000125   Thumb Code     0  entry.o(.ARM.Collect$$$$00000000)
    _main_stk                                0x08000125   Thumb Code     0  entry2.o(.ARM.Collect$$$$00000001)
    _main_scatterload                        0x08000129   Thumb Code     0  entry5.o(.ARM.Collect$$$$00000004)
    __main_after_scatterload                 0x0800012d   Thumb Code     0  entry5.o(.ARM.Collect$$$$00000004)
    _main_clock                              0x0800012d   Thumb Code     0  entry7b.o(.ARM.Collect$$$$00000008)
    _main_cpp_init                           0x0800012d   Thumb Code     0  entry8b.o(.ARM.Collect$$$$0000000A)
    _main_init                               0x0800012d   Thumb Code     0  entry9a.o(.ARM.Collect$$$$0000000B)
    __rt_final_cpp                           0x08000135   Thumb Code     0  entry10a.o(.ARM.Collect$$$$0000000D)
    __rt_final_exit                          0x08000135   Thumb Code     0  entry11a.o(.ARM.Collect$$$$0000000F)
    Reset_Handler                            0x08000139   Thumb Code     8  startup_stm32l1xx_hd.o(.text)
    ADC1_IRQHandler                          0x08000153   Thumb Code     0  startup_stm32l1xx_hd.o(.text)
    AES_IRQHandler                           0x08000153   Thumb Code     0  startup_stm32l1xx_hd.o(.text)
    COMP_ACQ_IRQHandler                      0x08000153   Thumb Code     0  startup_stm32l1xx_hd.o(.text)
    COMP_IRQHandler                          0x08000153   Thumb Code     0  startup_stm32l1xx_hd.o(.text)
    DAC_IRQHandler                           0x08000153   Thumb Code     0  startup_stm32l1xx_hd.o(.text)
    DMA1_Channel1_IRQHandler                 0x08000153   Thumb Code     0  startup_stm32l1xx_hd.o(.text)
    DMA1_Channel2_IRQHandler                 0x08000153   Thumb Code     0  startup_stm32l1xx_hd.o(.text)
    DMA1_Channel3_IRQHandler                 0x08000153   Thumb Code     0  startup_stm32l1xx_hd.o(.text)
    DMA1_Channel4_IRQHandler                 0x08000153   Thumb Code     0  startup_stm32l1xx_hd.o(.text)
    DMA1_Channel5_IRQHandler                 0x08000153   Thumb Code     0  startup_stm32l1xx_hd.o(.text)
    DMA1_Channel6_IRQHandler                 0x08000153   Thumb Code     0  startup_stm32l1xx_hd.o(.text)
    DMA1_Channel7_IRQHandler                 0x08000153   Thumb Code     0  startup_stm32l1xx_hd.o(.text)
    DMA2_Channel1_IRQHandler                 0x08000153   Thumb Code     0  startup_stm32l1xx_hd.o(.text)
    DMA2_Channel2_IRQHandler                 0x08000153   Thumb Code     0  startup_stm32l1xx_hd.o(.text)
    DMA2_Channel3_IRQHandler                 0x08000153   Thumb Code     0  startup_stm32l1xx_hd.o(.text)
    DMA2_Channel4_IRQHandler                 0x08000153   Thumb Code     0  startup_stm32l1xx_hd.o(.text)
    DMA2_Channel5_IRQHandler                 0x08000153   Thumb Code     0  startup_stm32l1xx_hd.o(.text)
    EXTI1_IRQHandler                         0x08000153   Thumb Code     0  startup_stm32l1xx_hd.o(.text)
    EXTI2_IRQHandler                         0x08000153   Thumb Code     0  startup_stm32l1xx_hd.o(.text)
    EXTI3_IRQHandler                         0x08000153   Thumb Code     0  startup_stm32l1xx_hd.o(.text)
    EXTI4_IRQHandler                         0x08000153   Thumb Code     0  startup_stm32l1xx_hd.o(.text)
    EXTI9_5_IRQHandler                       0x08000153   Thumb Code     0  startup_stm32l1xx_hd.o(.text)
    FLASH_IRQHandler                         0x08000153   Thumb Code     0  startup_stm32l1xx_hd.o(.text)
    I2C1_ER_IRQHandler                       0x08000153   Thumb Code     0  startup_stm32l1xx_hd.o(.text)
    I2C1_EV_IRQHandler                       0x08000153   Thumb Code     0  startup_stm32l1xx_hd.o(.text)
    I2C2_ER_IRQHandler                       0x08000153   Thumb Code     0  startup_stm32l1xx_hd.o(.text)
    I2C2_EV_IRQHandler                       0x08000153   Thumb Code     0  startup_stm32l1xx_hd.o(.text)
    LCD_IRQHandler                           0x08000153   Thumb Code     0  startup_stm32l1xx_hd.o(.text)
    PVD_IRQHandler                           0x08000153   Thumb Code     0  startup_stm32l1xx_hd.o(.text)
    RCC_IRQHandler                           0x08000153   Thumb Code     0  startup_stm32l1xx_hd.o(.text)
    RTC_Alarm_IRQHandler                     0x08000153   Thumb Code     0  startup_stm32l1xx_hd.o(.text)
    RTC_WKUP_IRQHandler                      0x08000153   Thumb Code     0  startup_stm32l1xx_hd.o(.text)
    SDIO_IRQHandler                          0x08000153   Thumb Code     0  startup_stm32l1xx_hd.o(.text)
    SPI1_IRQHandler                          0x08000153   Thumb Code     0  startup_stm32l1xx_hd.o(.text)
    SPI2_IRQHandler                          0x08000153   Thumb Code     0  startup_stm32l1xx_hd.o(.text)
    SPI3_IRQHandler                          0x08000153   Thumb Code     0  startup_stm32l1xx_hd.o(.text)
    TAMPER_STAMP_IRQHandler                  0x08000153   Thumb Code     0  startup_stm32l1xx_hd.o(.text)
    TIM10_IRQHandler                         0x08000153   Thumb Code     0  startup_stm32l1xx_hd.o(.text)
    TIM11_IRQHandler                         0x08000153   Thumb Code     0  startup_stm32l1xx_hd.o(.text)
    TIM4_IRQHandler                          0x08000153   Thumb Code     0  startup_stm32l1xx_hd.o(.text)
    TIM5_IRQHandler                          0x08000153   Thumb Code     0  startup_stm32l1xx_hd.o(.text)
    TIM6_IRQHandler                          0x08000153   Thumb Code     0  startup_stm32l1xx_hd.o(.text)
    TIM7_IRQHandler                          0x08000153   Thumb Code     0  startup_stm32l1xx_hd.o(.text)
    TIM9_IRQHandler                          0x08000153   Thumb Code     0  startup_stm32l1xx_hd.o(.text)
    UART4_IRQHandler                         0x08000153   Thumb Code     0  startup_stm32l1xx_hd.o(.text)
    UART5_IRQHandler                         0x08000153   Thumb Code     0  startup_stm32l1xx_hd.o(.text)
    USART2_IRQHandler                        0x08000153   Thumb Code     0  startup_stm32l1xx_hd.o(.text)
    USB_FS_WKUP_IRQHandler                   0x08000153   Thumb Code     0  startup_stm32l1xx_hd.o(.text)
    USB_HP_IRQHandler                        0x08000153   Thumb Code     0  startup_stm32l1xx_hd.o(.text)
    USB_LP_IRQHandler                        0x08000153   Thumb Code     0  startup_stm32l1xx_hd.o(.text)
    WWDG_IRQHandler                          0x08000153   Thumb Code     0  startup_stm32l1xx_hd.o(.text)
    __aeabi_memcpy                           0x0800015d   Thumb Code    36  memcpya.o(.text)
    __aeabi_memcpy4                          0x0800015d   Thumb Code     0  memcpya.o(.text)
    __aeabi_memcpy8                          0x0800015d   Thumb Code     0  memcpya.o(.text)
    __aeabi_memset                           0x08000181   Thumb Code    14  memseta.o(.text)
    __aeabi_memset4                          0x08000181   Thumb Code     0  memseta.o(.text)
    __aeabi_memset8                          0x08000181   Thumb Code     0  memseta.o(.text)
    __aeabi_memclr                           0x0800018f   Thumb Code     4  memseta.o(.text)
    __aeabi_memclr4                          0x0800018f   Thumb Code     0  memseta.o(.text)
    __aeabi_memclr8                          0x0800018f   Thumb Code     0  memseta.o(.text)
    _memset$wrapper                          0x08000193   Thumb Code    18  memseta.o(.text)
    __aeabi_fadd                             0x080001a5   Thumb Code   164  fadd.o(.text)
    __aeabi_fsub                             0x08000249   Thumb Code     6  fadd.o(.text)
    __aeabi_frsub                            0x0800024f   Thumb Code     6  fadd.o(.text)
    __aeabi_fmul                             0x08000255   Thumb Code   108  fmul.o(.text)
    __aeabi_fdiv                             0x080002c1   Thumb Code   128  fdiv.o(.text)
    __aeabi_dadd                             0x08000341   Thumb Code   322  dadd.o(.text)
    __aeabi_dsub                             0x08000483   Thumb Code     6  dadd.o(.text)
    __aeabi_drsub                            0x08000489   Thumb Code     6  dadd.o(.text)
    __aeabi_dmul                             0x0800048f   Thumb Code   228  dmul.o(.text)
    __aeabi_ddiv                             0x08000573   Thumb Code   222  ddiv.o(.text)
    __aeabi_i2f                              0x08000651   Thumb Code    18  fflti.o(.text)
    __aeabi_ui2f                             0x08000663   Thumb Code    10  ffltui.o(.text)
    __aeabi_f2uiz                            0x0800066d   Thumb Code    40  ffixui.o(.text)
    __aeabi_f2d                              0x08000695   Thumb Code    38  f2d.o(.text)
    __aeabi_cdcmpeq                          0x080006bd   Thumb Code     0  cdcmple.o(.text)
    __aeabi_cdcmple                          0x080006bd   Thumb Code    38  cdcmple.o(.text)
    __aeabi_cdrcmple                         0x080006e5   Thumb Code    38  cdrcmple.o(.text)
    __aeabi_d2f                              0x0800070d   Thumb Code    56  d2f.o(.text)
    __aeabi_cfcmpeq                          0x08000745   Thumb Code     0  cfcmple.o(.text)
    __aeabi_cfcmple                          0x08000745   Thumb Code    20  cfcmple.o(.text)
    __aeabi_cfrcmple                         0x08000759   Thumb Code    20  cfrcmple.o(.text)
    __aeabi_uidiv                            0x0800076d   Thumb Code     0  uidiv.o(.text)
    __aeabi_uidivmod                         0x0800076d   Thumb Code    44  uidiv.o(.text)
    __aeabi_uldivmod                         0x08000799   Thumb Code    98  uldiv.o(.text)
    __aeabi_llsl                             0x080007fb   Thumb Code    30  llshl.o(.text)
    _ll_shift_l                              0x080007fb   Thumb Code     0  llshl.o(.text)
    __aeabi_lasr                             0x08000819   Thumb Code    36  llsshr.o(.text)
    _ll_sshift_r                             0x08000819   Thumb Code     0  llsshr.o(.text)
    __I$use$fp                               0x0800083d   Thumb Code     0  iusefp.o(.text)
    _float_round                             0x0800083d   Thumb Code    18  fepilogue.o(.text)
    _float_epilogue                          0x0800084f   Thumb Code    90  fepilogue.o(.text)
    _double_round                            0x080008a9   Thumb Code    26  depilogue.o(.text)
    _double_epilogue                         0x080008c3   Thumb Code   164  depilogue.o(.text)
    __aeabi_d2ulz                            0x08000967   Thumb Code    48  dfixul.o(.text)
    __scatterload                            0x08000999   Thumb Code    28  init.o(.text)
    __scatterload_rt2                        0x08000999   Thumb Code     0  init.o(.text)
    __aeabi_llsr                             0x080009bd   Thumb Code    32  llushr.o(.text)
    _ll_ushift_r                             0x080009bd   Thumb Code     0  llushr.o(.text)
    __decompress                             0x080009dd   Thumb Code     0  __dczerorl2.o(.text)
    __decompress1                            0x080009dd   Thumb Code    92  __dczerorl2.o(.text)
    ADC1_Init                                0x08000a89   Thumb Code    30  bsp_adc.o(i.ADC1_Init)
    ADC_Cmd                                  0x08000bd1   Thumb Code    22  stm32l1xx_adc.o(i.ADC_Cmd)
    ADC_DMACmd                               0x08000be7   Thumb Code    22  stm32l1xx_adc.o(i.ADC_DMACmd)
    ADC_DMARequestAfterLastTransferCmd       0x08000bfd   Thumb Code    22  stm32l1xx_adc.o(i.ADC_DMARequestAfterLastTransferCmd)
    ADC_DeInit                               0x08000c15   Thumb Code    28  stm32l1xx_adc.o(i.ADC_DeInit)
    ADC_GetFlagStatus                        0x08000c35   Thumb Code    18  stm32l1xx_adc.o(i.ADC_GetFlagStatus)
    ADC_Init                                 0x08000c49   Thumb Code    74  stm32l1xx_adc.o(i.ADC_Init)
    ADC_RegularChannelConfig                 0x08000c9d   Thumb Code   344  stm32l1xx_adc.o(i.ADC_RegularChannelConfig)
    ADC_SoftwareStartConv                    0x08000df5   Thumb Code    10  stm32l1xx_adc.o(i.ADC_SoftwareStartConv)
    ADC_StructInit                           0x08000dff   Thumb Code    26  stm32l1xx_adc.o(i.ADC_StructInit)
    Ack                                      0x08000e19   Thumb Code    74  bsp_i2c.o(i.Ack)
    AlarmDeal                                0x08000f49   Thumb Code   676  bsp_alarmdeal.o(i.AlarmDeal)
    BatteryVoltageDeal                       0x08001205   Thumb Code   204  bsp_powerdeal.o(i.BatteryVoltageDeal)
    BellNn                                   0x080014bd   Thumb Code    50  bsp_alarmdeal.o(i.BellNn)
    BellNn_longer                            0x080014f5   Thumb Code    50  bsp_alarmdeal.o(i.BellNn_longer)
    BusFault_Handler                         0x0800152d   Thumb Code     4  stm32l1xx_it.o(i.BusFault_Handler)
    Button_Config                            0x08001531   Thumb Code     2  freemodbus.o(i.Button_Config)
    Button_Poll                              0x08001535   Thumb Code     8  freemodbus.o(i.Button_Poll)
    Change3BytesTimeToLong                   0x08001541   Thumb Code    26  bsp_class.o(i.Change3BytesTimeToLong)
    Char_to_Int                              0x080016d9   Thumb Code     8  bsp_class.o(i.Char_to_Int)
    DBGMCU_Config                            0x08001711   Thumb Code    26  stm32l1xx_dbgmcu.o(i.DBGMCU_Config)
    DMA_Cmd                                  0x08001731   Thumb Code    24  stm32l1xx_dma.o(i.DMA_Cmd)
    DMA_DeInit                               0x08001749   Thumb Code   324  stm32l1xx_dma.o(i.DMA_DeInit)
    DMA_GetFlagStatus                        0x08001895   Thumb Code    34  stm32l1xx_dma.o(i.DMA_GetFlagStatus)
    DMA_Init                                 0x080018c1   Thumb Code    60  stm32l1xx_dma.o(i.DMA_Init)
    DebugMon_Handler                         0x080018fd   Thumb Code     2  stm32l1xx_it.o(i.DebugMon_Handler)
    Delay_ms                                 0x08001901   Thumb Code    36  bsp_systick.o(i.Delay_ms)
    Display_ChannelValue                     0x08001929   Thumb Code   130  bsp_lcd.o(i.Display_ChannelValue)
    Display_Mem                              0x080019c9   Thumb Code   496  bsp_lcd.o(i.Display_Mem)
    Display_NUL                              0x08001bc1   Thumb Code    40  bsp_lcd.o(i.Display_NUL)
    Display_SN                               0x08001be9   Thumb Code   278  bsp_lcd.o(i.Display_SN)
    EXTI0_IRQHandler                         0x08001d4d   Thumb Code   114  stm32l1xx_it.o(i.EXTI0_IRQHandler)
    EXTI15_10_Config                         0x08001dc9   Thumb Code   118  bsp_exti_key.o(i.EXTI15_10_Config)
    EXTI15_10_IRQHandler                     0x08001e41   Thumb Code   168  stm32l1xx_it.o(i.EXTI15_10_IRQHandler)
    EXTI_ClearITPendingBit                   0x08001f21   Thumb Code     6  stm32l1xx_exti.o(i.EXTI_ClearITPendingBit)
    EXTI_GetITStatus                         0x08001f2d   Thumb Code    20  stm32l1xx_exti.o(i.EXTI_GetITStatus)
    EXTI_Init                                0x08001f45   Thumb Code   142  stm32l1xx_exti.o(i.EXTI_Init)
    EnterCriticalSection                     0x08001fd9   Thumb Code     4  port.o(i.EnterCriticalSection)
    Error_Handler                            0x08001fdd   Thumb Code     4  freemodbus.o(i.Error_Handler)
    ExitCriticalSection                      0x08001fe1   Thumb Code     4  port.o(i.ExitCriticalSection)
    ExternalPowerDetection                   0x08001fe5   Thumb Code   740  bsp_powerdeal.o(i.ExternalPowerDetection)
    FirstCheckExternPower                    0x080022d9   Thumb Code    54  bsp_powerdeal.o(i.FirstCheckExternPower)
    FisrtPowerOnDisplay                      0x08002369   Thumb Code    82  bsp_lcd.o(i.FisrtPowerOnDisplay)
    Fram_Read                                0x080023c9   Thumb Code   180  bsp_i2c.o(i.Fram_Read)
    Fram_Write                               0x08002481   Thumb Code   146  bsp_i2c.o(i.Fram_Write)
    GPIO_Init                                0x08002519   Thumb Code   132  stm32l1xx_gpio.o(i.GPIO_Init)
    GPIO_PinAFConfig                         0x0800259d   Thumb Code    70  stm32l1xx_gpio.o(i.GPIO_PinAFConfig)
    GPIO_ReadInputDataBit                    0x080025e3   Thumb Code    18  stm32l1xx_gpio.o(i.GPIO_ReadInputDataBit)
    GPIO_ResetBits                           0x080025f5   Thumb Code     4  stm32l1xx_gpio.o(i.GPIO_ResetBits)
    GPIO_SetBits                             0x080025f9   Thumb Code     4  stm32l1xx_gpio.o(i.GPIO_SetBits)
    GetRecIntervalTime                       0x08002751   Thumb Code    84  bsp_class.o(i.GetRecIntervalTime)
    HAL_GPIO_Init                            0x080027bd   Thumb Code   438  stm32l1xx_hal_gpio.o(i.HAL_GPIO_Init)
    HAL_NVIC_EnableIRQ                       0x08002999   Thumb Code    28  stm32l1xx_hal_cortex.o(i.HAL_NVIC_EnableIRQ)
    HAL_NVIC_SetPriority                     0x080029b5   Thumb Code   124  stm32l1xx_hal_cortex.o(i.HAL_NVIC_SetPriority)
    HAL_RCC_GetHCLKFreq                      0x08002a31   Thumb Code    42  stm32l1xx_hal_rcc.o(i.HAL_RCC_GetHCLKFreq)
    HAL_RCC_GetPCLK1Freq                     0x08002a69   Thumb Code    36  stm32l1xx_hal_rcc.o(i.HAL_RCC_GetPCLK1Freq)
    HAL_RCC_GetPCLK2Freq                     0x08002a95   Thumb Code    36  stm32l1xx_hal_rcc.o(i.HAL_RCC_GetPCLK2Freq)
    HAL_RCC_GetSysClockFreq                  0x08002ac1   Thumb Code   168  stm32l1xx_hal_rcc.o(i.HAL_RCC_GetSysClockFreq)
    HAL_TIM_Base_Init                        0x08002b7d   Thumb Code    52  stm32l1xx_hal_tim.o(i.HAL_TIM_Base_Init)
    HAL_TIM_Base_MspInit                     0x08002bb1   Thumb Code    50  stm32l1xx_hal_msp.o(i.HAL_TIM_Base_MspInit)
    HAL_TIM_Base_Start_IT                    0x08002be9   Thumb Code    44  stm32l1xx_hal_tim.o(i.HAL_TIM_Base_Start_IT)
    HAL_TIM_Base_Stop_IT                     0x08002c15   Thumb Code    54  stm32l1xx_hal_tim.o(i.HAL_TIM_Base_Stop_IT)
    HAL_TIM_IC_CaptureCallback               0x08002c4b   Thumb Code     2  stm32l1xx_hal_tim.o(i.HAL_TIM_IC_CaptureCallback)
    HAL_TIM_IRQHandler                       0x08002c4d   Thumb Code   338  stm32l1xx_hal_tim.o(i.HAL_TIM_IRQHandler)
    HAL_TIM_OC_DelayElapsedCallback          0x08002d9f   Thumb Code     2  stm32l1xx_hal_tim.o(i.HAL_TIM_OC_DelayElapsedCallback)
    HAL_TIM_PWM_PulseFinishedCallback        0x08002da1   Thumb Code     2  stm32l1xx_hal_tim.o(i.HAL_TIM_PWM_PulseFinishedCallback)
    HAL_TIM_PeriodElapsedCallback            0x08002da3   Thumb Code    10  porttimer.o(i.HAL_TIM_PeriodElapsedCallback)
    HAL_TIM_TriggerCallback                  0x08002dad   Thumb Code     2  stm32l1xx_hal_tim.o(i.HAL_TIM_TriggerCallback)
    HAL_UART_ErrorCallback                   0x08002daf   Thumb Code     2  stm32l1xx_hal_uart.o(i.HAL_UART_ErrorCallback)
    HAL_UART_Init                            0x08002db1   Thumb Code   110  stm32l1xx_hal_uart.o(i.HAL_UART_Init)
    HAL_UART_MspInit                         0x08002e21   Thumb Code   158  stm32l1xx_hal_msp.o(i.HAL_UART_MspInit)
    HAL_UART_Receive_End                     0x08002ec9   Thumb Code    64  stm32l1xx_hal_uart.o(i.HAL_UART_Receive_End)
    HAL_UART_Receive_IT                      0x08002f09   Thumb Code   152  stm32l1xx_hal_uart.o(i.HAL_UART_Receive_IT)
    HISTORY_DATA_READ                        0x08002fa1   Thumb Code   260  bsp_serialdeal.o(i.HISTORY_DATA_READ)
    HardFault_Handler                        0x080030b1   Thumb Code     4  stm32l1xx_it.o(i.HardFault_Handler)
    JlySecDeal                               0x08003591   Thumb Code    72  bsp_datadeal.o(i.JlySecDeal)
    JudgingChannelNumberDisplay              0x080035e5   Thumb Code    60  bsp_lcd.o(i.JudgingChannelNumberDisplay)
    KEY_GPIO_Config                          0x0800362d   Thumb Code    34  bsp_exti_key.o(i.KEY_GPIO_Config)
    LCD_Cmd                                  0x08003655   Thumb Code     6  stm32l1xx_lcd.o(i.LCD_Cmd)
    LCD_ContrastConfig                       0x08003661   Thumb Code    22  stm32l1xx_lcd.o(i.LCD_ContrastConfig)
    LCD_GLASS_Clear                          0x0800367d   Thumb Code    42  bsp_lcd.o(i.LCD_GLASS_Clear)
    LCD_GLASS_Init                           0x080036ad   Thumb Code   102  bsp_lcd.o(i.LCD_GLASS_Init)
    LCD_GetFlagStatus                        0x08003949   Thumb Code    20  stm32l1xx_lcd.o(i.LCD_GetFlagStatus)
    LCD_Init                                 0x08003961   Thumb Code    78  stm32l1xx_lcd.o(i.LCD_Init)
    LCD_PulseOnDurationConfig                0x080039b5   Thumb Code    22  stm32l1xx_lcd.o(i.LCD_PulseOnDurationConfig)
    LCD_StructInit                           0x080039d1   Thumb Code    14  stm32l1xx_lcd.o(i.LCD_StructInit)
    LCD_UpdateDisplayRequest                 0x080039e1   Thumb Code     8  stm32l1xx_lcd.o(i.LCD_UpdateDisplayRequest)
    LCD_WaitForSynchro                       0x080039ed   Thumb Code    28  stm32l1xx_lcd.o(i.LCD_WaitForSynchro)
    LED_Config                               0x08003a0d   Thumb Code     2  freemodbus.o(i.LED_Config)
    LED_Poll                                 0x08003a11   Thumb Code    48  freemodbus.o(i.LED_Poll)
    Lcd_ChannelValue                         0x08003a99   Thumb Code   484  bsp_lcd.o(i.Lcd_ChannelValue)
    MemManage_Handler                        0x08006629   Thumb Code     4  stm32l1xx_it.o(i.MemManage_Handler)
    NMI_Handler                              0x0800662d   Thumb Code     2  stm32l1xx_it.o(i.NMI_Handler)
    NVIC_Init                                0x08006669   Thumb Code   108  misc.o(i.NVIC_Init)
    NVIC_PriorityGroupConfig                 0x080066e1   Thumb Code    10  misc.o(i.NVIC_PriorityGroupConfig)
    OffPowerSupply                           0x0800671d   Thumb Code    46  bsp_init.o(i.OffPowerSupply)
    PARAM_DATA_READ                          0x08006829   Thumb Code   246  bsp_serialdeal.o(i.PARAM_DATA_READ)
    PARAM_DATA_WRITE                         0x08006929   Thumb Code   442  bsp_serialdeal.o(i.PARAM_DATA_WRITE)
    PWR_RTCAccessCmd                         0x08006af1   Thumb Code     6  stm32l1xx_pwr.o(i.PWR_RTCAccessCmd)
    PendSV_Handler                           0x08006afd   Thumb Code     2  stm32l1xx_it.o(i.PendSV_Handler)
    PeripheralInit                           0x08006aff   Thumb Code    52  bsp_init.o(i.PeripheralInit)
    RCC_AHBPeriphClockCmd                    0x08006b35   Thumb Code    26  stm32l1xx_rcc.o(i.RCC_AHBPeriphClockCmd)
    RCC_APB1PeriphClockCmd                   0x08006b55   Thumb Code    26  stm32l1xx_rcc.o(i.RCC_APB1PeriphClockCmd)
    RCC_APB2PeriphClockCmd                   0x08006b75   Thumb Code    26  stm32l1xx_rcc.o(i.RCC_APB2PeriphClockCmd)
    RCC_APB2PeriphResetCmd                   0x08006b95   Thumb Code    26  stm32l1xx_rcc.o(i.RCC_APB2PeriphResetCmd)
    RCC_GetClocksFreq                        0x08006bb5   Thumb Code   234  stm32l1xx_rcc.o(i.RCC_GetClocksFreq)
    RCC_GetFlagStatus                        0x08006cb5   Thumb Code    48  stm32l1xx_rcc.o(i.RCC_GetFlagStatus)
    RCC_GetSYSCLKSource                      0x08006ce9   Thumb Code    10  stm32l1xx_rcc.o(i.RCC_GetSYSCLKSource)
    RCC_HSEConfig                            0x08006cf9   Thumb Code    12  stm32l1xx_rcc.o(i.RCC_HSEConfig)
    RCC_HSICmd                               0x08006d09   Thumb Code     6  stm32l1xx_rcc.o(i.RCC_HSICmd)
    RCC_LSEConfig                            0x08006d15   Thumb Code    12  stm32l1xx_rcc.o(i.RCC_LSEConfig)
    RCC_LSICmd                               0x08006d25   Thumb Code     6  stm32l1xx_rcc.o(i.RCC_LSICmd)
    RCC_PLLCmd                               0x08006d31   Thumb Code     6  stm32l1xx_rcc.o(i.RCC_PLLCmd)
    RCC_RTCCLKCmd                            0x08006d3d   Thumb Code     6  stm32l1xx_rcc.o(i.RCC_RTCCLKCmd)
    RCC_RTCCLKConfig                         0x08006d49   Thumb Code    64  stm32l1xx_rcc.o(i.RCC_RTCCLKConfig)
    RCC_SYSCLKConfig                         0x08006d8d   Thumb Code    18  stm32l1xx_rcc.o(i.RCC_SYSCLKConfig)
    RCC_WaitForHSEStartUp                    0x08006da5   Thumb Code    56  stm32l1xx_rcc.o(i.RCC_WaitForHSEStartUp)
    REALDATA_DATA_READ                       0x08006ddd   Thumb Code    74  bsp_serialdeal.o(i.REALDATA_DATA_READ)
    RTC8025_Read                             0x08006e2d   Thumb Code   164  bsp_i2c.o(i.RTC8025_Read)
    RTC8025_Reset                            0x08006ed5   Thumb Code   428  bsp_i2c.o(i.RTC8025_Reset)
    RTC8025_Write                            0x080070e9   Thumb Code   130  bsp_i2c.o(i.RTC8025_Write)
    RTC_Date_Time_To_Second                  0x08007171   Thumb Code   132  bsp_rtc.o(i.RTC_Date_Time_To_Second)
    RTC_Second_To_Date_Time                  0x080071f9   Thumb Code   190  bsp_rtc.o(i.RTC_Second_To_Date_Time)
    RTC_WaitForSynchro                       0x080072c1   Thumb Code    92  stm32l1xx_rtc.o(i.RTC_WaitForSynchro)
    ReadSetFramFlag                          0x08007339   Thumb Code    32  bsp_init.o(i.ReadSetFramFlag)
    ReadU16Pointer                           0x08007359   Thumb Code    20  bsp_storagedata.o(i.ReadU16Pointer)
    ReadU32Pointer                           0x0800736d   Thumb Code    18  bsp_storagedata.o(i.ReadU32Pointer)
    RecorderBootModeHandle                   0x08007381   Thumb Code   642  bsp_bootstop.o(i.RecorderBootModeHandle)
    RecorderStopModeHandle                   0x08007615   Thumb Code    62  bsp_bootstop.o(i.RecorderStopModeHandle)
    RecvByte                                 0x08007661   Thumb Code    98  bsp_i2c.o(i.RecvByte)
    Relay_Poll                               0x080076c9   Thumb Code     6  freemodbus.o(i.Relay_Poll)
    RtcBcdToD10                              0x080076d5   Thumb Code   210  bsp_rtc.o(i.RtcBcdToD10)
    RtcD10ToBcd                              0x080077a7   Thumb Code   148  bsp_rtc.o(i.RtcD10ToBcd)
    SPI_Cmd                                  0x0800783b   Thumb Code    24  stm32l1xx_spi.o(i.SPI_Cmd)
    SPI_FLASH_BufferRead                     0x08007855   Thumb Code    76  bsp_spi_flash.o(i.SPI_FLASH_BufferRead)
    SPI_FLASH_BufferWrite                    0x080078a5   Thumb Code   290  bsp_spi_flash.o(i.SPI_FLASH_BufferWrite)
    SPI_FLASH_Init                           0x080079c9   Thumb Code   256  bsp_spi_flash.o(i.SPI_FLASH_Init)
    SPI_FLASH_PageWrite                      0x08007ad5   Thumb Code    92  bsp_spi_flash.o(i.SPI_FLASH_PageWrite)
    SPI_FLASH_SectorErase                    0x08007b35   Thumb Code    62  bsp_spi_flash.o(i.SPI_FLASH_SectorErase)
    SPI_FLASH_SendByte                       0x08007b79   Thumb Code    50  bsp_spi_flash.o(i.SPI_FLASH_SendByte)
    SPI_FLASH_WaitForWriteEnd                0x08007bb1   Thumb Code    44  bsp_spi_flash.o(i.SPI_FLASH_WaitForWriteEnd)
    SPI_FLASH_WriteEnable                    0x08007be1   Thumb Code    26  bsp_spi_flash.o(i.SPI_FLASH_WriteEnable)
    SPI_I2S_GetFlagStatus                    0x08007c01   Thumb Code    18  stm32l1xx_spi.o(i.SPI_I2S_GetFlagStatus)
    SPI_I2S_ReceiveData                      0x08007c13   Thumb Code     6  stm32l1xx_spi.o(i.SPI_I2S_ReceiveData)
    SPI_I2S_SendData                         0x08007c19   Thumb Code     4  stm32l1xx_spi.o(i.SPI_I2S_SendData)
    SPI_Init                                 0x08007c1d   Thumb Code    60  stm32l1xx_spi.o(i.SPI_Init)
    STORAGE_DATA_READ                        0x08007c59   Thumb Code   478  bsp_serialdeal.o(i.STORAGE_DATA_READ)
    SVC_Handler                              0x08007e3d   Thumb Code     2  stm32l1xx_it.o(i.SVC_Handler)
    SYSCFG_EXTILineConfig                    0x08007e41   Thumb Code    60  stm32l1xx_syscfg.o(i.SYSCFG_EXTILineConfig)
    SaveDataOnTimeDeal                       0x08007f31   Thumb Code    20  bsp_storagedata.o(i.SaveDataOnTimeDeal)
    SendByte                                 0x08008119   Thumb Code    90  bsp_i2c.o(i.SendByte)
    SensorDataSampleDealAndBatteryVoltageDeal 0x08008179   Thumb Code   246  bsp_datasampledeal.o(i.SensorDataSampleDealAndBatteryVoltageDeal)
    SetFlashOverFlow                         0x08008479   Thumb Code    22  bsp_storagedata.o(i.SetFlashOverFlow)
    Start                                    0x080088fd   Thumb Code    84  bsp_i2c.o(i.Start)
    Stop                                     0x0800898d   Thumb Code    62  bsp_i2c.o(i.Stop)
    StorageHistoryData                       0x080089d1   Thumb Code    48  bsp_storagedata.o(i.StorageHistoryData)
    SysClock_ReConfig                        0x08008a55   Thumb Code   140  bsp_init.o(i.SysClock_ReConfig)
    SysInit                                  0x08008ae5   Thumb Code    88  bsp_init.o(i.SysInit)
    SysTick_Handler                          0x08008b45   Thumb Code    34  stm32l1xx_it.o(i.SysTick_Handler)
    SysTick_Init                             0x08008b71   Thumb Code   108  bsp_systick.o(i.SysTick_Init)
    SystemInit                               0x08008be9   Thumb Code    88  system_stm32l1xx.o(i.SystemInit)
    TIM2_Configuration                       0x08008c51   Thumb Code    76  bsp_timer.o(i.TIM2_Configuration)
    TIM2_IRQHandler                          0x08008c9d   Thumb Code   184  stm32l1xx_it.o(i.TIM2_IRQHandler)
    TIM3_IRQHandler                          0x08008d8d   Thumb Code    10  porttimer.o(i.TIM3_IRQHandler)
    TIM_ClearFlag                            0x08008e0d   Thumb Code     6  stm32l1xx_tim.o(i.TIM_ClearFlag)
    TIM_ClearITPendingBit                    0x08008e13   Thumb Code     6  stm32l1xx_tim.o(i.TIM_ClearITPendingBit)
    TIM_Cmd                                  0x08008e19   Thumb Code    24  stm32l1xx_tim.o(i.TIM_Cmd)
    TIM_GetITStatus                          0x08008e31   Thumb Code    34  stm32l1xx_tim.o(i.TIM_GetITStatus)
    TIM_ITConfig                             0x08008e53   Thumb Code    18  stm32l1xx_tim.o(i.TIM_ITConfig)
    TIM_TimeBaseInit                         0x08008e65   Thumb Code    76  stm32l1xx_tim.o(i.TIM_TimeBaseInit)
    TimingDelay_Decrement                    0x080093b5   Thumb Code    18  bsp_systick.o(i.TimingDelay_Decrement)
    USART1_Config                            0x080095dd   Thumb Code   152  bsp_usart.o(i.USART1_Config)
    USART1_IRQHandler                        0x0800967d   Thumb Code    32  stm32l1xx_it.o(i.USART1_IRQHandler)
    USART3_IRQHandler                        0x080096a5   Thumb Code   262  portserial.o(i.USART3_IRQHandler)
    USART_Cmd                                0x080097b1   Thumb Code    24  stm32l1xx_usart.o(i.USART_Cmd)
    USART_GetFlagStatus                      0x080097c9   Thumb Code    26  stm32l1xx_usart.o(i.USART_GetFlagStatus)
    USART_GetITStatus                        0x080097e3   Thumb Code    84  stm32l1xx_usart.o(i.USART_GetITStatus)
    USART_ITConfig                           0x08009837   Thumb Code    74  stm32l1xx_usart.o(i.USART_ITConfig)
    USART_Init                               0x08009881   Thumb Code   198  stm32l1xx_usart.o(i.USART_Init)
    USART_ReceiveData                        0x0800994d   Thumb Code    10  stm32l1xx_usart.o(i.USART_ReceiveData)
    USART_SendData                           0x08009957   Thumb Code     8  stm32l1xx_usart.o(i.USART_SendData)
    UsageFault_Handler                       0x0800995f   Thumb Code     4  stm32l1xx_it.o(i.UsageFault_Handler)
    ValueFtToU16                             0x08009965   Thumb Code   150  bsp_class.o(i.ValueFtToU16)
    WaitAck                                  0x08009a05   Thumb Code   126  bsp_i2c.o(i.WaitAck)
    WriteSetFramFlag                         0x08009ac1   Thumb Code    26  bsp_init.o(i.WriteSetFramFlag)
    WriteU16Pointer                          0x08009adb   Thumb Code    20  bsp_storagedata.o(i.WriteU16Pointer)
    WriteU32Pointer                          0x08009aef   Thumb Code    20  bsp_storagedata.o(i.WriteU32Pointer)
    __0printf$8                              0x08009b05   Thumb Code    22  printf8.o(i.__0printf$8)
    __1printf$8                              0x08009b05   Thumb Code     0  printf8.o(i.__0printf$8)
    __2printf                                0x08009b05   Thumb Code     0  printf8.o(i.__0printf$8)
    __0vsprintf                              0x08009b25   Thumb Code    30  printfa.o(i.__0vsprintf)
    __1vsprintf                              0x08009b25   Thumb Code     0  printfa.o(i.__0vsprintf)
    __2vsprintf                              0x08009b25   Thumb Code     0  printfa.o(i.__0vsprintf)
    __c89vsprintf                            0x08009b25   Thumb Code     0  printfa.o(i.__0vsprintf)
    vsprintf                                 0x08009b25   Thumb Code     0  printfa.o(i.__0vsprintf)
    __scatterload_copy                       0x08009b49   Thumb Code    14  handlers.o(i.__scatterload_copy)
    __scatterload_null                       0x08009b57   Thumb Code     2  handlers.o(i.__scatterload_null)
    __scatterload_zeroinit                   0x08009b59   Thumb Code    14  handlers.o(i.__scatterload_zeroinit)
    displayDAY                               0x0800a873   Thumb Code   144  bsp_lcd.o(i.displayDAY)
    displayErr                               0x0800a905   Thumb Code   114  bsp_lcd.o(i.displayErr)
    displayTIME                              0x0800a97d   Thumb Code   144  bsp_lcd.o(i.displayTIME)
    displayYEAR                              0x0800aa0d   Thumb Code   132  bsp_lcd.o(i.displayYEAR)
    eMBEnable                                0x0800aa91   Thumb Code    32  mb.o(i.eMBEnable)
    eMBFuncReadCoils                         0x0800aab9   Thumb Code   166  mbfunccoils.o(i.eMBFuncReadCoils)
    eMBFuncReadDiscreteInputs                0x0800ab5f   Thumb Code   164  mbfuncdisc.o(i.eMBFuncReadDiscreteInputs)
    eMBFuncReadHistoryRegister               0x0800ac03   Thumb Code   132  mbfunchistory.o(i.eMBFuncReadHistoryRegister)
    eMBFuncReadHoldingRegister               0x0800ac87   Thumb Code   132  mbfuncholding.o(i.eMBFuncReadHoldingRegister)
    eMBFuncReadInputRegister                 0x0800ad0b   Thumb Code   132  mbfuncinput.o(i.eMBFuncReadInputRegister)
    eMBFuncReadRealDataRegister              0x0800ad8f   Thumb Code   132  mbfuncrealdata.o(i.eMBFuncReadRealDataRegister)
    eMBFuncReadWriteMultipleHoldingRegister  0x0800ae13   Thumb Code   212  mbfuncholding.o(i.eMBFuncReadWriteMultipleHoldingRegister)
    eMBFuncReportSlaveID                     0x0800aee9   Thumb Code    30  mbfuncother.o(i.eMBFuncReportSlaveID)
    eMBFuncWriteCoil                         0x0800af11   Thumb Code   108  mbfunccoils.o(i.eMBFuncWriteCoil)
    eMBFuncWriteHoldingRegister              0x0800af7d   Thumb Code    62  mbfuncholding.o(i.eMBFuncWriteHoldingRegister)
    eMBFuncWriteMultipleCoils                0x0800afbb   Thumb Code   142  mbfunccoils.o(i.eMBFuncWriteMultipleCoils)
    eMBFuncWriteMultipleHoldingRegister      0x0800b049   Thumb Code   106  mbfuncholding.o(i.eMBFuncWriteMultipleHoldingRegister)
    eMBInit                                  0x0800b0b5   Thumb Code   152  mb.o(i.eMBInit)
    eMBPoll                                  0x0800b195   Thumb Code   294  mb.o(i.eMBPoll)
    eMBRTUInit                               0x0800b319   Thumb Code    84  mbrtu.o(i.eMBRTUInit)
    eMBRTUReceive                            0x0800b371   Thumb Code    78  mbrtu.o(i.eMBRTUReceive)
    eMBRTUSend                               0x0800b3e1   Thumb Code   154  mbrtu.o(i.eMBRTUSend)
    eMBRTUStart                              0x0800b491   Thumb Code    30  mbrtu.o(i.eMBRTUStart)
    eMBRTUStop                               0x0800b4b5   Thumb Code    24  mbrtu.o(i.eMBRTUStop)
    eMBRegCoilsCB                            0x0800b4cd   Thumb Code   168  freemodbus.o(i.eMBRegCoilsCB)
    eMBRegDiscreteCB                         0x0800b581   Thumb Code   104  freemodbus.o(i.eMBRegDiscreteCB)
    eMBRegHistoryCB                          0x0800b5f9   Thumb Code   118  freemodbus.o(i.eMBRegHistoryCB)
    eMBRegHoldingCB                          0x0800b681   Thumb Code   218  freemodbus.o(i.eMBRegHoldingCB)
    eMBRegInputCB                            0x0800b76d   Thumb Code   118  freemodbus.o(i.eMBRegInputCB)
    eMBRegRealDataCB                         0x0800b7f5   Thumb Code   132  freemodbus.o(i.eMBRegRealDataCB)
    fputc                                    0x0800b889   Thumb Code    32  bsp_usart.o(i.fputc)
    freemodbus_init                          0x0800b8ad   Thumb Code    34  freemodbus.o(i.freemodbus_init)
    freemodbus_main                          0x0800b8cf   Thumb Code    26  freemodbus.o(i.freemodbus_main)
    lcd_OFF                                  0x0800b8e9   Thumb Code   392  bsp_lcd.o(i.lcd_OFF)
    main                                     0x0800ba79   Thumb Code    24  main.o(i.main)
    prveMBError2Exception                    0x0800ba91   Thumb Code    34  mbutils.o(i.prveMBError2Exception)
    read_time                                0x0800baf1   Thumb Code   128  bsp_rtc.o(i.read_time)
    rtc_deel                                 0x0800bb75   Thumb Code   336  bsp_rtc.o(i.rtc_deel)
    serialread_time                          0x0800bcd9   Thumb Code    74  bsp_rtc.o(i.serialread_time)
    set_time                                 0x0800bd29   Thumb Code    84  bsp_rtc.o(i.set_time)
    usMBCRC16                                0x0800bd81   Thumb Code    48  mbcrc.o(i.usMBCRC16)
    vMBPortSerialEnable                      0x0800bdb9   Thumb Code    94  portserial.o(i.vMBPortSerialEnable)
    vMBPortTimersDisable                     0x0800be21   Thumb Code    16  porttimer.o(i.vMBPortTimersDisable)
    vMBPortTimersEnable                      0x0800be35   Thumb Code    28  porttimer.o(i.vMBPortTimersEnable)
    xMBOutput                                0x0800be55   Thumb Code    68  port.o(i.xMBOutput)
    xMBPortEventGet                          0x0800be9d   Thumb Code    26  portevent.o(i.xMBPortEventGet)
    xMBPortEventInit                         0x0800bec1   Thumb Code    10  portevent.o(i.xMBPortEventInit)
    xMBPortEventPost                         0x0800bed1   Thumb Code    16  portevent.o(i.xMBPortEventPost)
    xMBPortSerialGetByte                     0x0800bee9   Thumb Code    76  portserial.o(i.xMBPortSerialGetByte)
    xMBPortSerialInit                        0x0800bf39   Thumb Code    52  portserial.o(i.xMBPortSerialInit)
    xMBPortSerialPutByte                     0x0800bf75   Thumb Code    32  portserial.o(i.xMBPortSerialPutByte)
    xMBPortTimersInit                        0x0800bf99   Thumb Code    72  porttimer.o(i.xMBPortTimersInit)
    xMBRTUReceiveFSM                         0x0800bff1   Thumb Code   122  mbrtu.o(i.xMBRTUReceiveFSM)
    xMBRTUTimerT35Expired                    0x0800c079   Thumb Code    60  mbrtu.o(i.xMBRTUTimerT35Expired)
    xMBRTUTransmitFSM                        0x0800c0b9   Thumb Code    94  mbrtu.o(i.xMBRTUTransmitFSM)
    xMBUtilGetBits                           0x0800c125   Thumb Code    42  mbutils.o(i.xMBUtilGetBits)
    xMBUtilSetBits                           0x0800c14f   Thumb Code    96  mbutils.o(i.xMBUtilSetBits)
    lcd_test                                 0x0800c1b0   Data         128  global.o(.constdata)
    RESET_ADJUST_CURVE1                      0x0800c230   Data          30  global.o(.constdata)
    RESET_ADJUST_CURVE2                      0x0800c24e   Data          22  global.o(.constdata)
    RESET_CHANNEL_SETUP_TABLE                0x0800c264   Data         104  global.o(.constdata)
    ConfMap_Address                          0x0800c2cc   Data          48  global.o(.constdata)
    aAPBAHBPrescTable                        0x0800c532   Data          16  stm32l1xx_hal_rcc.o(.constdata)
    aPLLDivisionFactorTable                  0x0800c542   Data           4  stm32l1xx_hal_rcc.o(.constdata)
    aPLLMulFactorTable                       0x0800c546   Data           9  stm32l1xx_hal_rcc.o(.constdata)
    Region$$Table$$Base                      0x0800c550   Number         0  anon$$obj.o(Region$$Table)
    Region$$Table$$Limit                     0x0800c570   Number         0  anon$$obj.o(Region$$Table)
    SystemCoreClock                          0x20000000   Data           4  system_stm32l1xx.o(.data)
    PLLMulTable                              0x20000004   Data           9  system_stm32l1xx.o(.data)
    AHBPrescTable                            0x2000000d   Data          16  system_stm32l1xx.o(.data)
    usRegInputStart                          0x20000036   Data           2  freemodbus.o(.data)
    usRegHoldingStart                        0x20000038   Data           2  freemodbus.o(.data)
    ucRegCoilsBuf                            0x2000003a   Data           2  freemodbus.o(.data)
    ucRegCoilsRerv                           0x2000003c   Data           2  freemodbus.o(.data)
    ucRegDiscreteBuf                         0x2000003e   Data           2  freemodbus.o(.data)
    ucRegDiscreteRerv                        0x20000040   Data           2  freemodbus.o(.data)
    TimingDelay                              0x20000044   Data           4  bsp_systick.o(.data)
    display_ct                               0x20000048   Data           1  global.o(.data)
    AdjustCurveFirAddress                    0x2000004c   Data           8  global.o(.data)
    Key                                      0x20000054   Data           3  global.o(.data)
    JlySensor                                0x20000057   Data           2  global.o(.data)
    rtc_pt                                   0x20000059   Data           1  global.o(.data)
    uAddress                                 0x2000005a   Data           1  global.o(.data)
    Key1ChangAnCount                         0x2000005b   Data           1  global.o(.data)
    ChannelForDisplay                        0x2000005c   Data           1  global.o(.data)
    StartedChannelForDisplay                 0x2000005d   Data           1  global.o(.data)
    Started_Channel                          0x2000005e   Data           1  global.o(.data)
    SYS_CLK                                  0x20000060   Data           4  global.o(.data)
    SysTickTestCount                         0x20000064   Data           4  global.o(.data)
    temptest                                 0x20000068   Data           4  global.o(.data)
    PowerCount                               0x2000006c   Data           4  global.o(.data)
    month_days                               0x20000070   Data          24  bsp_rtc.o(.data)
    pxMBFrameCBByteReceived                  0x20000160   Data           4  mb.o(.data)
    pxMBFrameCBTransmitterEmpty              0x20000164   Data           4  mb.o(.data)
    pxMBPortCBTimerExpired                   0x20000168   Data           4  mb.o(.data)
    pxMBFrameCBReceiveFSMCur                 0x2000016c   Data           4  mb.o(.data)
    pxMBFrameCBTransmitFSMCur                0x20000170   Data           4  mb.o(.data)
    __stdout                                 0x20000188   Data           4  stdout.o(.data)
    usRegInputBuf                            0x2000018c   Data        1024  freemodbus.o(.bss)
    usRegHoldingBuf                          0x2000058c   Data        1024  freemodbus.o(.bss)
    DataBuf                                  0x2000098c   Data          70  global.o(.bss)
    PManage                                  0x200009d2   Data          10  global.o(.bss)
    Flag                                     0x200009dc   Data          36  global.o(.bss)
    Rtc                                      0x20000a00   Data          20  global.o(.bss)
    Queue                                    0x20000a14   Data          40  global.o(.bss)
    JlyParam                                 0x20000a3c   Data         132  global.o(.bss)
    Conf                                     0x20000ac0   Data        3232  global.o(.bss)
    adc                                      0x20001760   Data          64  global.o(.bss)
    adcCopy                                  0x200017a0   Data          64  global.o(.bss)
    ADC_ConvertedValue                       0x200017e0   Data          64  global.o(.bss)
    FlagSeniorErr                            0x20001820   Data          32  global.o(.bss)
    ChannelDataFloat                         0x20001840   Data         128  global.o(.bss)
    ucRTUBuf                                 0x20001ae0   Data         256  mbrtu.o(.bss)
    __initial_sp                             0x20002068   Data           0  startup_stm32l1xx_hd.o(STACK)



==============================================================================

Memory Map of the image

  Image Entry point : 0x08000125

  Load Region LR_IROM1 (Base: 0x08000000, Size: 0x0000c6fc, Max: 0x00060000, ABSOLUTE, COMPRESSED[0x0000c61c])

    Execution Region ER_IROM1 (Base: 0x08000000, Size: 0x0000c570, Max: 0x00060000, ABSOLUTE)

    Base Addr    Size         Type   Attr      Idx    E Section Name        Object

    0x08000000   0x00000124   Data   RO            3    RESET               startup_stm32l1xx_hd.o
    0x08000124   0x00000000   Code   RO         6111  * .ARM.Collect$$$$00000000  mc_w.l(entry.o)
    0x08000124   0x00000004   Code   RO         6411    .ARM.Collect$$$$00000001  mc_w.l(entry2.o)
    0x08000128   0x00000004   Code   RO         6414    .ARM.Collect$$$$00000004  mc_w.l(entry5.o)
    0x0800012c   0x00000000   Code   RO         6416    .ARM.Collect$$$$00000008  mc_w.l(entry7b.o)
    0x0800012c   0x00000000   Code   RO         6418    .ARM.Collect$$$$0000000A  mc_w.l(entry8b.o)
    0x0800012c   0x00000008   Code   RO         6419    .ARM.Collect$$$$0000000B  mc_w.l(entry9a.o)
    0x08000134   0x00000000   Code   RO         6421    .ARM.Collect$$$$0000000D  mc_w.l(entry10a.o)
    0x08000134   0x00000000   Code   RO         6423    .ARM.Collect$$$$0000000F  mc_w.l(entry11a.o)
    0x08000134   0x00000004   Code   RO         6412    .ARM.Collect$$$$00002712  mc_w.l(entry2.o)
    0x08000138   0x00000024   Code   RO            4    .text               startup_stm32l1xx_hd.o
    0x0800015c   0x00000024   Code   RO         6114    .text               mc_w.l(memcpya.o)
    0x08000180   0x00000024   Code   RO         6116    .text               mc_w.l(memseta.o)
    0x080001a4   0x000000b0   Code   RO         6381    .text               mf_w.l(fadd.o)
    0x08000254   0x0000006c   Code   RO         6383    .text               mf_w.l(fmul.o)
    0x080002c0   0x00000080   Code   RO         6385    .text               mf_w.l(fdiv.o)
    0x08000340   0x0000014e   Code   RO         6387    .text               mf_w.l(dadd.o)
    0x0800048e   0x000000e4   Code   RO         6389    .text               mf_w.l(dmul.o)
    0x08000572   0x000000de   Code   RO         6391    .text               mf_w.l(ddiv.o)
    0x08000650   0x00000012   Code   RO         6393    .text               mf_w.l(fflti.o)
    0x08000662   0x0000000a   Code   RO         6395    .text               mf_w.l(ffltui.o)
    0x0800066c   0x00000028   Code   RO         6397    .text               mf_w.l(ffixui.o)
    0x08000694   0x00000026   Code   RO         6399    .text               mf_w.l(f2d.o)
    0x080006ba   0x00000002   PAD
    0x080006bc   0x00000028   Code   RO         6401    .text               mf_w.l(cdcmple.o)
    0x080006e4   0x00000028   Code   RO         6403    .text               mf_w.l(cdrcmple.o)
    0x0800070c   0x00000038   Code   RO         6405    .text               mf_w.l(d2f.o)
    0x08000744   0x00000014   Code   RO         6407    .text               mf_w.l(cfcmple.o)
    0x08000758   0x00000014   Code   RO         6409    .text               mf_w.l(cfrcmple.o)
    0x0800076c   0x0000002c   Code   RO         6426    .text               mc_w.l(uidiv.o)
    0x08000798   0x00000062   Code   RO         6428    .text               mc_w.l(uldiv.o)
    0x080007fa   0x0000001e   Code   RO         6430    .text               mc_w.l(llshl.o)
    0x08000818   0x00000024   Code   RO         6432    .text               mc_w.l(llsshr.o)
    0x0800083c   0x00000000   Code   RO         6434    .text               mc_w.l(iusefp.o)
    0x0800083c   0x0000006c   Code   RO         6435    .text               mf_w.l(fepilogue.o)
    0x080008a8   0x000000be   Code   RO         6437    .text               mf_w.l(depilogue.o)
    0x08000966   0x00000030   Code   RO         6439    .text               mf_w.l(dfixul.o)
    0x08000996   0x00000002   PAD
    0x08000998   0x00000024   Code   RO         6441    .text               mc_w.l(init.o)
    0x080009bc   0x00000020   Code   RO         6443    .text               mc_w.l(llushr.o)
    0x080009dc   0x0000005c   Code   RO         6453    .text               mc_w.l(__dczerorl2.o)
    0x08000a38   0x00000050   Code   RO         2922    i.ADC1_GPIO_Config  bsp_adc.o
    0x08000a88   0x0000001e   Code   RO         2923    i.ADC1_Init         bsp_adc.o
    0x08000aa6   0x00000002   PAD
    0x08000aa8   0x00000128   Code   RO         2924    i.ADC1_Mode_Config  bsp_adc.o
    0x08000bd0   0x00000016   Code   RO          332    i.ADC_Cmd           stm32l1xx_adc.o
    0x08000be6   0x00000016   Code   RO          336    i.ADC_DMACmd        stm32l1xx_adc.o
    0x08000bfc   0x00000016   Code   RO          337    i.ADC_DMARequestAfterLastTransferCmd  stm32l1xx_adc.o
    0x08000c12   0x00000002   PAD
    0x08000c14   0x00000020   Code   RO          338    i.ADC_DeInit        stm32l1xx_adc.o
    0x08000c34   0x00000012   Code   RO          346    i.ADC_GetFlagStatus  stm32l1xx_adc.o
    0x08000c46   0x00000002   PAD
    0x08000c48   0x00000054   Code   RO          352    i.ADC_Init          stm32l1xx_adc.o
    0x08000c9c   0x00000158   Code   RO          357    i.ADC_RegularChannelConfig  stm32l1xx_adc.o
    0x08000df4   0x0000000a   Code   RO          359    i.ADC_SoftwareStartConv  stm32l1xx_adc.o
    0x08000dfe   0x0000001a   Code   RO          361    i.ADC_StructInit    stm32l1xx_adc.o
    0x08000e18   0x00000050   Code   RO         3374    i.Ack               bsp_i2c.o
    0x08000e68   0x000000c0   Code   RO         3640    i.AlarmAction       bsp_alarmdeal.o
    0x08000f28   0x00000020   Code   RO         3703    i.AlarmConfDataUpdate  bsp_serialdeal.o
    0x08000f48   0x000002bc   Code   RO         3641    i.AlarmDeal         bsp_alarmdeal.o
    0x08001204   0x000000d8   Code   RO         3674    i.BatteryVoltageDeal  bsp_powerdeal.o
    0x080012dc   0x000001e0   Code   RO         3675    i.BatteryVoltageSampleDataDeal  bsp_powerdeal.o
    0x080014bc   0x00000038   Code   RO         3642    i.BellNn            bsp_alarmdeal.o
    0x080014f4   0x00000038   Code   RO         3643    i.BellNn_longer     bsp_alarmdeal.o
    0x0800152c   0x00000004   Code   RO         2722    i.BusFault_Handler  stm32l1xx_it.o
    0x08001530   0x00000002   Code   RO         2440    i.Button_Config     freemodbus.o
    0x08001532   0x00000002   PAD
    0x08001534   0x0000000c   Code   RO         2441    i.Button_Poll       freemodbus.o
    0x08001540   0x0000001a   Code   RO         3491    i.Change3BytesTimeToLong  bsp_class.o
    0x0800155a   0x00000002   PAD
    0x0800155c   0x0000017c   Code   RO         3777    i.ChannelDataDeal   bsp_storagedata.o
    0x080016d8   0x00000008   Code   RO         3492    i.Char_to_Int       bsp_class.o
    0x080016e0   0x00000030   Code   RO         3644    i.CloseAlarm        bsp_alarmdeal.o
    0x08001710   0x00000020   Code   RO         2285    i.DBGMCU_Config     stm32l1xx_dbgmcu.o
    0x08001730   0x00000018   Code   RO          561    i.DMA_Cmd           stm32l1xx_dma.o
    0x08001748   0x0000014c   Code   RO          562    i.DMA_DeInit        stm32l1xx_dma.o
    0x08001894   0x0000002c   Code   RO          564    i.DMA_GetFlagStatus  stm32l1xx_dma.o
    0x080018c0   0x0000003c   Code   RO          567    i.DMA_Init          stm32l1xx_dma.o
    0x080018fc   0x00000002   Code   RO         2723    i.DebugMon_Handler  stm32l1xx_it.o
    0x080018fe   0x00000002   Code   RO         3375    i.Delay             bsp_i2c.o
    0x08001900   0x00000028   Code   RO         2891    i.Delay_ms          bsp_systick.o
    0x08001928   0x000000a0   Code   RO         2975    i.Display_ChannelValue  bsp_lcd.o
    0x080019c8   0x000001f8   Code   RO         2977    i.Display_Mem       bsp_lcd.o
    0x08001bc0   0x00000028   Code   RO         2978    i.Display_NUL       bsp_lcd.o
    0x08001be8   0x00000120   Code   RO         2979    i.Display_SN        bsp_lcd.o
    0x08001d08   0x00000044   Code   RO         3873    i.DoGatherChannelDataFloat  bsp_datasampledeal.o
    0x08001d4c   0x0000007c   Code   RO         2724    i.EXTI0_IRQHandler  stm32l1xx_it.o
    0x08001dc8   0x00000076   Code   RO         2944    i.EXTI15_10_Config  bsp_exti_key.o
    0x08001e3e   0x00000002   PAD
    0x08001e40   0x000000e0   Code   RO         2725    i.EXTI15_10_IRQHandler  stm32l1xx_it.o
    0x08001f20   0x0000000c   Code   RO          632    i.EXTI_ClearITPendingBit  stm32l1xx_exti.o
    0x08001f2c   0x00000018   Code   RO          636    i.EXTI_GetITStatus  stm32l1xx_exti.o
    0x08001f44   0x00000094   Code   RO          637    i.EXTI_Init         stm32l1xx_exti.o
    0x08001fd8   0x00000004   Code   RO         4202    i.EnterCriticalSection  BTBUS_Library.lib(port.o)
    0x08001fdc   0x00000004   Code   RO         2442    i.Error_Handler     freemodbus.o
    0x08001fe0   0x00000004   Code   RO         4203    i.ExitCriticalSection  BTBUS_Library.lib(port.o)
    0x08001fe4   0x000002f4   Code   RO         3676    i.ExternalPowerDetection  bsp_powerdeal.o
    0x080022d8   0x00000044   Code   RO         3677    i.FirstCheckExternPower  bsp_powerdeal.o
    0x0800231c   0x0000004c   Code   RO         2809    i.FirstScanSysData  bsp_init.o
    0x08002368   0x00000060   Code   RO         2981    i.FisrtPowerOnDisplay  bsp_lcd.o
    0x080023c8   0x000000b8   Code   RO         3376    i.Fram_Read         bsp_i2c.o
    0x08002480   0x00000098   Code   RO         3377    i.Fram_Write        bsp_i2c.o
    0x08002518   0x00000084   Code   RO          686    i.GPIO_Init         stm32l1xx_gpio.o
    0x0800259c   0x00000046   Code   RO          687    i.GPIO_PinAFConfig  stm32l1xx_gpio.o
    0x080025e2   0x00000012   Code   RO          690    i.GPIO_ReadInputDataBit  stm32l1xx_gpio.o
    0x080025f4   0x00000004   Code   RO          693    i.GPIO_ResetBits    stm32l1xx_gpio.o
    0x080025f8   0x00000004   Code   RO          694    i.GPIO_SetBits      stm32l1xx_gpio.o
    0x080025fc   0x00000154   Code   RO         2811    i.General_GPIO_Config  bsp_init.o
    0x08002750   0x00000054   Code   RO         3493    i.GetRecIntervalTime  bsp_class.o
    0x080027a4   0x00000016   Code   RO         2982    i.GetStartChanel    bsp_lcd.o
    0x080027ba   0x00000002   PAD
    0x080027bc   0x000001dc   Code   RO         4141    i.HAL_GPIO_Init     BTBUS_Library.lib(stm32l1xx_hal_gpio.o)
    0x08002998   0x0000001c   Code   RO         3937    i.HAL_NVIC_EnableIRQ  BTBUS_Library.lib(stm32l1xx_hal_cortex.o)
    0x080029b4   0x0000007c   Code   RO         3943    i.HAL_NVIC_SetPriority  BTBUS_Library.lib(stm32l1xx_hal_cortex.o)
    0x08002a30   0x00000038   Code   RO         5957    i.HAL_RCC_GetHCLKFreq  BTBUS_Library.lib(stm32l1xx_hal_rcc.o)
    0x08002a68   0x0000002c   Code   RO         5959    i.HAL_RCC_GetPCLK1Freq  BTBUS_Library.lib(stm32l1xx_hal_rcc.o)
    0x08002a94   0x0000002c   Code   RO         5960    i.HAL_RCC_GetPCLK2Freq  BTBUS_Library.lib(stm32l1xx_hal_rcc.o)
    0x08002ac0   0x000000bc   Code   RO         5961    i.HAL_RCC_GetSysClockFreq  BTBUS_Library.lib(stm32l1xx_hal_rcc.o)
    0x08002b7c   0x00000034   Code   RO         4870    i.HAL_TIM_Base_Init  BTBUS_Library.lib(stm32l1xx_hal_tim.o)
    0x08002bb0   0x00000038   Code   RO         2321    i.HAL_TIM_Base_MspInit  stm32l1xx_hal_msp.o
    0x08002be8   0x0000002c   Code   RO         4875    i.HAL_TIM_Base_Start_IT  BTBUS_Library.lib(stm32l1xx_hal_tim.o)
    0x08002c14   0x00000036   Code   RO         4878    i.HAL_TIM_Base_Stop_IT  BTBUS_Library.lib(stm32l1xx_hal_tim.o)
    0x08002c4a   0x00000002   Code   RO         4899    i.HAL_TIM_IC_CaptureCallback  BTBUS_Library.lib(stm32l1xx_hal_tim.o)
    0x08002c4c   0x00000152   Code   RO         4912    i.HAL_TIM_IRQHandler  BTBUS_Library.lib(stm32l1xx_hal_tim.o)
    0x08002d9e   0x00000002   Code   RO         4915    i.HAL_TIM_OC_DelayElapsedCallback  BTBUS_Library.lib(stm32l1xx_hal_tim.o)
    0x08002da0   0x00000002   Code   RO         4942    i.HAL_TIM_PWM_PulseFinishedCallback  BTBUS_Library.lib(stm32l1xx_hal_tim.o)
    0x08002da2   0x0000000a   Code   RO         4752    i.HAL_TIM_PeriodElapsedCallback  BTBUS_Library.lib(porttimer.o)
    0x08002dac   0x00000002   Code   RO         4953    i.HAL_TIM_TriggerCallback  BTBUS_Library.lib(stm32l1xx_hal_tim.o)
    0x08002dae   0x00000002   Code   RO         5513    i.HAL_UART_ErrorCallback  BTBUS_Library.lib(stm32l1xx_hal_uart.o)
    0x08002db0   0x0000006e   Code   RO         5517    i.HAL_UART_Init     BTBUS_Library.lib(stm32l1xx_hal_uart.o)
    0x08002e1e   0x00000002   PAD
    0x08002e20   0x000000a8   Code   RO         2323    i.HAL_UART_MspInit  stm32l1xx_hal_msp.o
    0x08002ec8   0x00000040   Code   RO         5522    i.HAL_UART_Receive_End  BTBUS_Library.lib(stm32l1xx_hal_uart.o)
    0x08002f08   0x00000098   Code   RO         5523    i.HAL_UART_Receive_IT  BTBUS_Library.lib(stm32l1xx_hal_uart.o)
    0x08002fa0   0x00000110   Code   RO         3704    i.HISTORY_DATA_READ  bsp_serialdeal.o
    0x080030b0   0x00000004   Code   RO         2726    i.HardFault_Handler  stm32l1xx_it.o
    0x080030b4   0x00000204   Code   RO         3874    i.HumiChang_to_Shishu  bsp_datasampledeal.o
    0x080032b8   0x00000138   Code   RO         3875    i.Humi_Adjust       bsp_datasampledeal.o
    0x080033f0   0x0000002c   Code   RO         2812    i.I2C_GPIO_Config   bsp_init.o
    0x0800341c   0x00000118   Code   RO         3705    i.JlyConfDataUpData  bsp_serialdeal.o
    0x08003534   0x0000005c   Code   RO         3533    i.JlyOffDeal        bsp_datadeal.o
    0x08003590   0x00000054   Code   RO         3534    i.JlySecDeal        bsp_datadeal.o
    0x080035e4   0x00000048   Code   RO         2983    i.JudgingChannelNumberDisplay  bsp_lcd.o
    0x0800362c   0x00000028   Code   RO         2945    i.KEY_GPIO_Config   bsp_exti_key.o
    0x08003654   0x0000000c   Code   RO          778    i.LCD_Cmd           stm32l1xx_lcd.o
    0x08003660   0x0000001c   Code   RO          779    i.LCD_ContrastConfig  stm32l1xx_lcd.o
    0x0800367c   0x00000030   Code   RO         2984    i.LCD_GLASS_Clear   bsp_lcd.o
    0x080036ac   0x00000066   Code   RO         2987    i.LCD_GLASS_Init    bsp_lcd.o
    0x08003712   0x00000002   PAD
    0x08003714   0x00000234   Code   RO         2989    i.LCD_GPIOConfig    bsp_lcd.o
    0x08003948   0x00000018   Code   RO          782    i.LCD_GetFlagStatus  stm32l1xx_lcd.o
    0x08003960   0x00000054   Code   RO          786    i.LCD_Init          stm32l1xx_lcd.o
    0x080039b4   0x0000001c   Code   RO          788    i.LCD_PulseOnDurationConfig  stm32l1xx_lcd.o
    0x080039d0   0x0000000e   Code   RO          789    i.LCD_StructInit    stm32l1xx_lcd.o
    0x080039de   0x00000002   PAD
    0x080039e0   0x0000000c   Code   RO          790    i.LCD_UpdateDisplayRequest  stm32l1xx_lcd.o
    0x080039ec   0x00000020   Code   RO          791    i.LCD_WaitForSynchro  stm32l1xx_lcd.o
    0x08003a0c   0x00000002   Code   RO         2444    i.LED_Config        freemodbus.o
    0x08003a0e   0x00000002   PAD
    0x08003a10   0x00000034   Code   RO         2445    i.LED_Poll          freemodbus.o
    0x08003a44   0x00000054   Code   RO         3535    i.LOWorNomalMode    bsp_datadeal.o
    0x08003a98   0x000001fc   Code   RO         2991    i.Lcd_ChannelValue  bsp_lcd.o
    0x08003c94   0x00000280   Code   RO         2992    i.Lcd_Dis10Value    bsp_lcd.o
    0x08003f14   0x00000218   Code   RO         2993    i.Lcd_Dis11Value    bsp_lcd.o
    0x0800412c   0x00000280   Code   RO         2994    i.Lcd_Dis12Value    bsp_lcd.o
    0x080043ac   0x00000280   Code   RO         2995    i.Lcd_Dis13Value    bsp_lcd.o
    0x0800462c   0x00000280   Code   RO         2996    i.Lcd_Dis14Value    bsp_lcd.o
    0x080048ac   0x00000280   Code   RO         2997    i.Lcd_Dis15Value    bsp_lcd.o
    0x08004b2c   0x000003cc   Code   RO         2998    i.Lcd_Dis1Value     bsp_lcd.o
    0x08004ef8   0x00000354   Code   RO         2999    i.Lcd_Dis2Value     bsp_lcd.o
    0x0800524c   0x000003e0   Code   RO         3000    i.Lcd_Dis3Value     bsp_lcd.o
    0x0800562c   0x00000384   Code   RO         3001    i.Lcd_Dis4Value     bsp_lcd.o
    0x080059b0   0x00000240   Code   RO         3002    i.Lcd_Dis5Value     bsp_lcd.o
    0x08005bf0   0x00000280   Code   RO         3003    i.Lcd_Dis6Value     bsp_lcd.o
    0x08005e70   0x00000280   Code   RO         3004    i.Lcd_Dis7Value     bsp_lcd.o
    0x080060f0   0x0000029c   Code   RO         3005    i.Lcd_Dis8Value     bsp_lcd.o
    0x0800638c   0x0000029c   Code   RO         3006    i.Lcd_Dis9Value     bsp_lcd.o
    0x08006628   0x00000004   Code   RO         2727    i.MemManage_Handler  stm32l1xx_it.o
    0x0800662c   0x00000002   Code   RO         2728    i.NMI_Handler       stm32l1xx_it.o
    0x0800662e   0x0000002a   Code   RO         3193    i.NVIC_Configuration  bsp_usart.o
    0x08006658   0x00000010   Code   RO         3950    i.NVIC_GetPriorityGrouping  BTBUS_Library.lib(stm32l1xx_hal_cortex.o)
    0x08006668   0x00000078   Code   RO          289    i.NVIC_Init         misc.o
    0x080066e0   0x00000014   Code   RO          290    i.NVIC_PriorityGroupConfig  misc.o
    0x080066f4   0x00000028   Code   RO         3951    i.NVIC_SetPriority  BTBUS_Library.lib(stm32l1xx_hal_cortex.o)
    0x0800671c   0x00000044   Code   RO         2813    i.OffPowerSupply    bsp_init.o
    0x08006760   0x000000c8   Code   RO         3536    i.OneSecTimedeal    bsp_datadeal.o
    0x08006828   0x00000100   Code   RO         3706    i.PARAM_DATA_READ   bsp_serialdeal.o
    0x08006928   0x000001c8   Code   RO         3707    i.PARAM_DATA_WRITE  bsp_serialdeal.o
    0x08006af0   0x0000000c   Code   RO          899    i.PWR_RTCAccessCmd  stm32l1xx_pwr.o
    0x08006afc   0x00000002   Code   RO         2729    i.PendSV_Handler    stm32l1xx_it.o
    0x08006afe   0x00000034   Code   RO         2814    i.PeripheralInit    bsp_init.o
    0x08006b32   0x00000002   PAD
    0x08006b34   0x00000020   Code   RO          979    i.RCC_AHBPeriphClockCmd  stm32l1xx_rcc.o
    0x08006b54   0x00000020   Code   RO          982    i.RCC_APB1PeriphClockCmd  stm32l1xx_rcc.o
    0x08006b74   0x00000020   Code   RO          985    i.RCC_APB2PeriphClockCmd  stm32l1xx_rcc.o
    0x08006b94   0x00000020   Code   RO          987    i.RCC_APB2PeriphResetCmd  stm32l1xx_rcc.o
    0x08006bb4   0x00000100   Code   RO          994    i.RCC_GetClocksFreq  stm32l1xx_rcc.o
    0x08006cb4   0x00000034   Code   RO          995    i.RCC_GetFlagStatus  stm32l1xx_rcc.o
    0x08006ce8   0x00000010   Code   RO          997    i.RCC_GetSYSCLKSource  stm32l1xx_rcc.o
    0x08006cf8   0x00000010   Code   RO          999    i.RCC_HSEConfig     stm32l1xx_rcc.o
    0x08006d08   0x0000000c   Code   RO         1000    i.RCC_HSICmd        stm32l1xx_rcc.o
    0x08006d14   0x00000010   Code   RO         1003    i.RCC_LSEConfig     stm32l1xx_rcc.o
    0x08006d24   0x0000000c   Code   RO         1004    i.RCC_LSICmd        stm32l1xx_rcc.o
    0x08006d30   0x0000000c   Code   RO         1010    i.RCC_PLLCmd        stm32l1xx_rcc.o
    0x08006d3c   0x0000000c   Code   RO         1012    i.RCC_RTCCLKCmd     stm32l1xx_rcc.o
    0x08006d48   0x00000044   Code   RO         1013    i.RCC_RTCCLKConfig  stm32l1xx_rcc.o
    0x08006d8c   0x00000018   Code   RO         1015    i.RCC_SYSCLKConfig  stm32l1xx_rcc.o
    0x08006da4   0x00000038   Code   RO         1016    i.RCC_WaitForHSEStartUp  stm32l1xx_rcc.o
    0x08006ddc   0x00000050   Code   RO         3708    i.REALDATA_DATA_READ  bsp_serialdeal.o
    0x08006e2c   0x000000a8   Code   RO         3379    i.RTC8025_Read      bsp_i2c.o
    0x08006ed4   0x00000214   Code   RO         3380    i.RTC8025_Reset     bsp_i2c.o
    0x080070e8   0x00000088   Code   RO         3381    i.RTC8025_Write     bsp_i2c.o
    0x08007170   0x00000088   Code   RO         3566    i.RTC_Date_Time_To_Second  bsp_rtc.o
    0x080071f8   0x000000c8   Code   RO         3567    i.RTC_Second_To_Date_Time  bsp_rtc.o
    0x080072c0   0x00000060   Code   RO         1265    i.RTC_WaitForSynchro  stm32l1xx_rtc.o
    0x08007320   0x00000018   Code   RO         3709    i.ReadBatVoltage    bsp_serialdeal.o
    0x08007338   0x00000020   Code   RO         2815    i.ReadSetFramFlag   bsp_init.o
    0x08007358   0x00000014   Code   RO         3781    i.ReadU16Pointer    bsp_storagedata.o
    0x0800736c   0x00000012   Code   RO         3782    i.ReadU32Pointer    bsp_storagedata.o
    0x0800737e   0x00000002   PAD
    0x08007380   0x00000294   Code   RO         3759    i.RecorderBootModeHandle  bsp_bootstop.o
    0x08007614   0x0000004c   Code   RO         3760    i.RecorderStopModeHandle  bsp_bootstop.o
    0x08007660   0x00000068   Code   RO         3382    i.RecvByte          bsp_i2c.o
    0x080076c8   0x0000000c   Code   RO         2450    i.Relay_Poll        freemodbus.o
    0x080076d4   0x000000d2   Code   RO         3570    i.RtcBcdToD10       bsp_rtc.o
    0x080077a6   0x00000094   Code   RO         3571    i.RtcD10ToBcd       bsp_rtc.o
    0x0800783a   0x00000018   Code   RO         2144    i.SPI_Cmd           stm32l1xx_spi.o
    0x08007852   0x00000002   PAD
    0x08007854   0x00000050   Code   RO         3251    i.SPI_FLASH_BufferRead  bsp_spi_flash.o
    0x080078a4   0x00000122   Code   RO         3252    i.SPI_FLASH_BufferWrite  bsp_spi_flash.o
    0x080079c6   0x00000002   PAD
    0x080079c8   0x0000010c   Code   RO         3254    i.SPI_FLASH_Init    bsp_spi_flash.o
    0x08007ad4   0x00000060   Code   RO         3255    i.SPI_FLASH_PageWrite  bsp_spi_flash.o
    0x08007b34   0x00000044   Code   RO         3259    i.SPI_FLASH_SectorErase  bsp_spi_flash.o
    0x08007b78   0x00000038   Code   RO         3260    i.SPI_FLASH_SendByte  bsp_spi_flash.o
    0x08007bb0   0x00000030   Code   RO         3264    i.SPI_FLASH_WaitForWriteEnd  bsp_spi_flash.o
    0x08007be0   0x00000020   Code   RO         3265    i.SPI_FLASH_WriteEnable  bsp_spi_flash.o
    0x08007c00   0x00000012   Code   RO         2152    i.SPI_I2S_GetFlagStatus  stm32l1xx_spi.o
    0x08007c12   0x00000006   Code   RO         2155    i.SPI_I2S_ReceiveData  stm32l1xx_spi.o
    0x08007c18   0x00000004   Code   RO         2156    i.SPI_I2S_SendData  stm32l1xx_spi.o
    0x08007c1c   0x0000003c   Code   RO         2157    i.SPI_Init          stm32l1xx_spi.o
    0x08007c58   0x000001e4   Code   RO         3710    i.STORAGE_DATA_READ  bsp_serialdeal.o
    0x08007e3c   0x00000002   Code   RO         2730    i.SVC_Handler       stm32l1xx_it.o
    0x08007e3e   0x00000002   PAD
    0x08007e40   0x00000040   Code   RO         2056    i.SYSCFG_EXTILineConfig  stm32l1xx_syscfg.o
    0x08007e80   0x00000050   Code   RO         3876    i.SamplingDataAveraging  bsp_datasampledeal.o
    0x08007ed0   0x00000060   Code   RO         3877    i.SamplingDataDealGather  bsp_datasampledeal.o
    0x08007f30   0x00000018   Code   RO         3783    i.SaveDataOnTimeDeal  bsp_storagedata.o
    0x08007f48   0x000001d0   Code   RO         3784    i.SaveHisDataToFlash  bsp_storagedata.o
    0x08008118   0x00000060   Code   RO         3383    i.SendByte          bsp_i2c.o
    0x08008178   0x0000011c   Code   RO         3878    i.SensorDataSampleDealAndBatteryVoltageDeal  bsp_datasampledeal.o
    0x08008294   0x000001e4   Code   RO         3879    i.SensorTypeDataDeal  bsp_datasampledeal.o
    0x08008478   0x0000001c   Code   RO         3785    i.SetFlashOverFlow  bsp_storagedata.o
    0x08008494   0x00000170   Code   RO         2816    i.SetJlyParamData   bsp_init.o
    0x08008604   0x000001ec   Code   RO         3711    i.SetJlyParamJudgeSensorTypeChannelSwitch  bsp_serialdeal.o
    0x080087f0   0x0000010c   Code   RO           24    i.SetSysClock       system_stm32l1xx.o
    0x080088fc   0x00000058   Code   RO         3384    i.Start             bsp_i2c.o
    0x08008954   0x00000038   Code   RO         3880    i.StartAdcSampleData  bsp_datasampledeal.o
    0x0800898c   0x00000044   Code   RO         3385    i.Stop              bsp_i2c.o
    0x080089d0   0x0000003c   Code   RO         3786    i.StorageHistoryData  bsp_storagedata.o
    0x08008a0c   0x00000048   Code   RO         2817    i.SysClock_Config   bsp_init.o
    0x08008a54   0x00000090   Code   RO         2818    i.SysClock_ReConfig  bsp_init.o
    0x08008ae4   0x00000060   Code   RO         2819    i.SysInit           bsp_init.o
    0x08008b44   0x0000002c   Code   RO         2731    i.SysTick_Handler   stm32l1xx_it.o
    0x08008b70   0x00000078   Code   RO         2892    i.SysTick_Init      bsp_systick.o
    0x08008be8   0x00000068   Code   RO           26    i.SystemInit        system_stm32l1xx.o
    0x08008c50   0x0000004c   Code   RO         3474    i.TIM2_Configuration  bsp_timer.o
    0x08008c9c   0x000000c4   Code   RO         2732    i.TIM2_IRQHandler   stm32l1xx_it.o
    0x08008d60   0x0000002a   Code   RO         3475    i.TIM2_NVIC_Configuration  bsp_timer.o
    0x08008d8a   0x00000002   PAD
    0x08008d8c   0x00000010   Code   RO         4753    i.TIM3_IRQHandler   BTBUS_Library.lib(porttimer.o)
    0x08008d9c   0x00000070   Code   RO         4954    i.TIM_Base_SetConfig  BTBUS_Library.lib(stm32l1xx_hal_tim.o)
    0x08008e0c   0x00000006   Code   RO         1555    i.TIM_ClearFlag     stm32l1xx_tim.o
    0x08008e12   0x00000006   Code   RO         1556    i.TIM_ClearITPendingBit  stm32l1xx_tim.o
    0x08008e18   0x00000018   Code   RO         1561    i.TIM_Cmd           stm32l1xx_tim.o
    0x08008e30   0x00000022   Code   RO         1581    i.TIM_GetITStatus   stm32l1xx_tim.o
    0x08008e52   0x00000012   Code   RO         1585    i.TIM_ITConfig      stm32l1xx_tim.o
    0x08008e64   0x00000060   Code   RO         1629    i.TIM_TimeBaseInit  stm32l1xx_tim.o
    0x08008ec4   0x00000204   Code   RO         3881    i.TempChang_to_Shishu  bsp_datasampledeal.o
    0x080090c8   0x00000238   Code   RO         3882    i.Temp_Adjust       bsp_datasampledeal.o
    0x08009300   0x000000b4   Code   RO         2820    i.TestFramIsOrNotOk  bsp_init.o
    0x080093b4   0x00000018   Code   RO         2893    i.TimingDelay_Decrement  bsp_systick.o
    0x080093cc   0x00000210   Code   RO         5538    i.UART_SetConfig    BTBUS_Library.lib(stm32l1xx_hal_uart.o)
    0x080095dc   0x000000a0   Code   RO         3194    i.USART1_Config     bsp_usart.o
    0x0800967c   0x00000028   Code   RO         2733    i.USART1_IRQHandler  stm32l1xx_it.o
    0x080096a4   0x0000010c   Code   RO         4674    i.USART3_IRQHandler  BTBUS_Library.lib(portserial.o)
    0x080097b0   0x00000018   Code   RO          109    i.USART_Cmd         stm32l1xx_usart.o
    0x080097c8   0x0000001a   Code   RO          112    i.USART_GetFlagStatus  stm32l1xx_usart.o
    0x080097e2   0x00000054   Code   RO          113    i.USART_GetITStatus  stm32l1xx_usart.o
    0x08009836   0x0000004a   Code   RO          115    i.USART_ITConfig    stm32l1xx_usart.o
    0x08009880   0x000000cc   Code   RO          116    i.USART_Init        stm32l1xx_usart.o
    0x0800994c   0x0000000a   Code   RO          123    i.USART_ReceiveData  stm32l1xx_usart.o
    0x08009956   0x00000008   Code   RO          126    i.USART_SendData    stm32l1xx_usart.o
    0x0800995e   0x00000004   Code   RO         2734    i.UsageFault_Handler  stm32l1xx_it.o
    0x08009962   0x00000002   PAD
    0x08009964   0x000000a0   Code   RO         3495    i.ValueFtToU16      bsp_class.o
    0x08009a04   0x00000084   Code   RO         3386    i.WaitAck           bsp_i2c.o
    0x08009a88   0x00000038   Code   RO         3537    i.WorkOrNotMode     bsp_datadeal.o
    0x08009ac0   0x0000001a   Code   RO         2822    i.WriteSetFramFlag  bsp_init.o
    0x08009ada   0x00000014   Code   RO         3787    i.WriteU16Pointer   bsp_storagedata.o
    0x08009aee   0x00000014   Code   RO         3788    i.WriteU32Pointer   bsp_storagedata.o
    0x08009b02   0x00000002   PAD
    0x08009b04   0x00000020   Code   RO         6327    i.__0printf$8       mc_w.l(printf8.o)
    0x08009b24   0x00000024   Code   RO         6359    i.__0vsprintf       mc_w.l(printfa.o)
    0x08009b48   0x0000000e   Code   RO         6447    i.__scatterload_copy  mc_w.l(handlers.o)
    0x08009b56   0x00000002   Code   RO         6448    i.__scatterload_null  mc_w.l(handlers.o)
    0x08009b58   0x0000000e   Code   RO         6449    i.__scatterload_zeroinit  mc_w.l(handlers.o)
    0x08009b66   0x00000002   PAD
    0x08009b68   0x0000015c   Code   RO         6360    i._fp_digits        mc_w.l(printfa.o)
    0x08009cc4   0x00000408   Code   RO         6334    i._printf_core      mc_w.l(printf8.o)
    0x0800a0cc   0x000006f0   Code   RO         6361    i._printf_core      mc_w.l(printfa.o)
    0x0800a7bc   0x00000026   Code   RO         6335    i._printf_post_padding  mc_w.l(printf8.o)
    0x0800a7e2   0x00000026   Code   RO         6362    i._printf_post_padding  mc_w.l(printfa.o)
    0x0800a808   0x00000030   Code   RO         6336    i._printf_pre_padding  mc_w.l(printf8.o)
    0x0800a838   0x00000030   Code   RO         6363    i._printf_pre_padding  mc_w.l(printfa.o)
    0x0800a868   0x0000000a   Code   RO         6365    i._sputc            mc_w.l(printfa.o)
    0x0800a872   0x00000090   Code   RO         3007    i.displayDAY        bsp_lcd.o
    0x0800a902   0x00000002   PAD
    0x0800a904   0x00000078   Code   RO         3008    i.displayErr        bsp_lcd.o
    0x0800a97c   0x00000090   Code   RO         3009    i.displayTIME       bsp_lcd.o
    0x0800aa0c   0x00000084   Code   RO         3010    i.displayYEAR       bsp_lcd.o
    0x0800aa90   0x00000028   Code   RO         4323    i.eMBEnable         BTBUS_Library.lib(mb.o)
    0x0800aab8   0x000000a6   Code   RO         4451    i.eMBFuncReadCoils  BTBUS_Library.lib(mbfunccoils.o)
    0x0800ab5e   0x000000a4   Code   RO         4475    i.eMBFuncReadDiscreteInputs  BTBUS_Library.lib(mbfuncdisc.o)
    0x0800ac02   0x00000084   Code   RO         4529    i.eMBFuncReadHistoryRegister  BTBUS_Library.lib(mbfunchistory.o)
    0x0800ac86   0x00000084   Code   RO         4487    i.eMBFuncReadHoldingRegister  BTBUS_Library.lib(mbfuncholding.o)
    0x0800ad0a   0x00000084   Code   RO         4517    i.eMBFuncReadInputRegister  BTBUS_Library.lib(mbfuncinput.o)
    0x0800ad8e   0x00000084   Code   RO         4541    i.eMBFuncReadRealDataRegister  BTBUS_Library.lib(mbfuncrealdata.o)
    0x0800ae12   0x000000d4   Code   RO         4488    i.eMBFuncReadWriteMultipleHoldingRegister  BTBUS_Library.lib(mbfuncholding.o)
    0x0800aee6   0x00000002   PAD
    0x0800aee8   0x00000028   Code   RO         4553    i.eMBFuncReportSlaveID  BTBUS_Library.lib(mbfuncother.o)
    0x0800af10   0x0000006c   Code   RO         4452    i.eMBFuncWriteCoil  BTBUS_Library.lib(mbfunccoils.o)
    0x0800af7c   0x0000003e   Code   RO         4489    i.eMBFuncWriteHoldingRegister  BTBUS_Library.lib(mbfuncholding.o)
    0x0800afba   0x0000008e   Code   RO         4453    i.eMBFuncWriteMultipleCoils  BTBUS_Library.lib(mbfunccoils.o)
    0x0800b048   0x0000006a   Code   RO         4490    i.eMBFuncWriteMultipleHoldingRegister  BTBUS_Library.lib(mbfuncholding.o)
    0x0800b0b2   0x00000002   PAD
    0x0800b0b4   0x000000e0   Code   RO         4324    i.eMBInit           BTBUS_Library.lib(mb.o)
    0x0800b194   0x00000184   Code   RO         4325    i.eMBPoll           BTBUS_Library.lib(mb.o)
    0x0800b318   0x00000058   Code   RO         4574    i.eMBRTUInit        BTBUS_Library.lib(mbrtu.o)
    0x0800b370   0x00000070   Code   RO         4575    i.eMBRTUReceive     BTBUS_Library.lib(mbrtu.o)
    0x0800b3e0   0x000000b0   Code   RO         4576    i.eMBRTUSend        BTBUS_Library.lib(mbrtu.o)
    0x0800b490   0x00000024   Code   RO         4577    i.eMBRTUStart       BTBUS_Library.lib(mbrtu.o)
    0x0800b4b4   0x00000018   Code   RO         4578    i.eMBRTUStop        BTBUS_Library.lib(mbrtu.o)
    0x0800b4cc   0x000000b4   Code   RO         2452    i.eMBRegCoilsCB     freemodbus.o
    0x0800b580   0x00000078   Code   RO         2453    i.eMBRegDiscreteCB  freemodbus.o
    0x0800b5f8   0x00000088   Code   RO         2454    i.eMBRegHistoryCB   freemodbus.o
    0x0800b680   0x000000ec   Code   RO         2455    i.eMBRegHoldingCB   freemodbus.o
    0x0800b76c   0x00000088   Code   RO         2456    i.eMBRegInputCB     freemodbus.o
    0x0800b7f4   0x00000094   Code   RO         2457    i.eMBRegRealDataCB  freemodbus.o
    0x0800b888   0x00000024   Code   RO         3196    i.fputc             bsp_usart.o
    0x0800b8ac   0x00000022   Code   RO         2458    i.freemodbus_init   freemodbus.o
    0x0800b8ce   0x0000001a   Code   RO         2459    i.freemodbus_main   freemodbus.o
    0x0800b8e8   0x00000190   Code   RO         3011    i.lcd_OFF           bsp_lcd.o
    0x0800ba78   0x00000018   Code   RO         2619    i.main              main.o
    0x0800ba90   0x00000022   Code   RO         4253    i.prveMBError2Exception  BTBUS_Library.lib(mbutils.o)
    0x0800bab2   0x00000002   PAD
    0x0800bab4   0x00000014   Code   RO         4754    i.prvvTIMERExpiredISR  BTBUS_Library.lib(porttimer.o)
    0x0800bac8   0x00000014   Code   RO         4675    i.prvvUARTRxISR     BTBUS_Library.lib(portserial.o)
    0x0800badc   0x00000014   Code   RO         4676    i.prvvUARTTxReadyISR  BTBUS_Library.lib(portserial.o)
    0x0800baf0   0x00000084   Code   RO         3572    i.read_time         bsp_rtc.o
    0x0800bb74   0x00000164   Code   RO         3573    i.rtc_deel          bsp_rtc.o
    0x0800bcd8   0x00000050   Code   RO         3574    i.serialread_time   bsp_rtc.o
    0x0800bd28   0x00000058   Code   RO         3575    i.set_time          bsp_rtc.o
    0x0800bd80   0x00000038   Code   RO         4812    i.usMBCRC16         BTBUS_Library.lib(mbcrc.o)
    0x0800bdb8   0x00000068   Code   RO         4677    i.vMBPortSerialEnable  BTBUS_Library.lib(portserial.o)
    0x0800be20   0x00000014   Code   RO         4756    i.vMBPortTimersDisable  BTBUS_Library.lib(porttimer.o)
    0x0800be34   0x00000020   Code   RO         4757    i.vMBPortTimersEnable  BTBUS_Library.lib(porttimer.o)
    0x0800be54   0x00000048   Code   RO         4205    i.xMBOutput         BTBUS_Library.lib(port.o)
    0x0800be9c   0x00000024   Code   RO         4403    i.xMBPortEventGet   BTBUS_Library.lib(portevent.o)
    0x0800bec0   0x00000010   Code   RO         4404    i.xMBPortEventInit  BTBUS_Library.lib(portevent.o)
    0x0800bed0   0x00000018   Code   RO         4405    i.xMBPortEventPost  BTBUS_Library.lib(portevent.o)
    0x0800bee8   0x00000050   Code   RO         4678    i.xMBPortSerialGetByte  BTBUS_Library.lib(portserial.o)
    0x0800bf38   0x0000003c   Code   RO         4679    i.xMBPortSerialInit  BTBUS_Library.lib(portserial.o)
    0x0800bf74   0x00000024   Code   RO         4680    i.xMBPortSerialPutByte  BTBUS_Library.lib(portserial.o)
    0x0800bf98   0x00000058   Code   RO         4758    i.xMBPortTimersInit  BTBUS_Library.lib(porttimer.o)
    0x0800bff0   0x00000088   Code   RO         4579    i.xMBRTUReceiveFSM  BTBUS_Library.lib(mbrtu.o)
    0x0800c078   0x00000040   Code   RO         4580    i.xMBRTUTimerT35Expired  BTBUS_Library.lib(mbrtu.o)
    0x0800c0b8   0x0000006c   Code   RO         4581    i.xMBRTUTransmitFSM  BTBUS_Library.lib(mbrtu.o)
    0x0800c124   0x0000002a   Code   RO         4254    i.xMBUtilGetBits    BTBUS_Library.lib(mbutils.o)
    0x0800c14e   0x00000060   Code   RO         4255    i.xMBUtilSetBits    BTBUS_Library.lib(mbutils.o)
    0x0800c1ae   0x00000002   PAD
    0x0800c1b0   0x0000014c   Data   RO         3223    .constdata          global.o
    0x0800c2fc   0x00000036   Data   RO         3883    .constdata          bsp_datasampledeal.o
    0x0800c332   0x00000200   Data   RO         4813    .constdata          BTBUS_Library.lib(mbcrc.o)
    0x0800c532   0x0000001d   Data   RO         5966    .constdata          BTBUS_Library.lib(stm32l1xx_hal_rcc.o)
    0x0800c54f   0x00000001   PAD
    0x0800c550   0x00000020   Data   RO         6445    Region$$Table       anon$$obj.o


    Execution Region RW_IRAM1 (Base: 0x20000000, Size: 0x00002068, Max: 0x0000c000, ABSOLUTE, COMPRESSED[0x000000ac])

    Base Addr    Size         Type   Attr      Idx    E Section Name        Object

    0x20000000   0x0000001d   Data   RW           27    .data               system_stm32l1xx.o
    0x2000001d   0x00000019   Data   RW         1017    .data               stm32l1xx_rcc.o
    0x20000036   0x0000000c   Data   RW         2461    .data               freemodbus.o
    0x20000042   0x00000002   PAD
    0x20000044   0x00000004   Data   RW         2894    .data               bsp_systick.o
    0x20000048   0x00000028   Data   RW         3224    .data               global.o
    0x20000070   0x00000048   Data   RW         3576    .data               bsp_rtc.o
    0x200000b8   0x00000002   Data   RW         3884    .data               bsp_datasampledeal.o
    0x200000ba   0x00000002   PAD
    0x200000bc   0x000000b8   Data   RW         4327    .data               BTBUS_Library.lib(mb.o)
    0x20000174   0x00000002   Data   RW         4406    .data               BTBUS_Library.lib(portevent.o)
    0x20000176   0x00000002   Data   RW         4556    .data               BTBUS_Library.lib(mbfuncother.o)
    0x20000178   0x0000000c   Data   RW         4583    .data               BTBUS_Library.lib(mbrtu.o)
    0x20000184   0x00000004   Data   RW         4760    .data               BTBUS_Library.lib(porttimer.o)
    0x20000188   0x00000004   Data   RW         6425    .data               mc_w.l(stdout.o)
    0x2000018c   0x00000800   Zero   RW         2460    .bss                freemodbus.o
    0x2000098c   0x00000f34   Zero   RW         3222    .bss                global.o
    0x200018c0   0x00000200   Zero   RW         4206    .bss                BTBUS_Library.lib(port.o)
    0x20001ac0   0x00000020   Zero   RW         4555    .bss                BTBUS_Library.lib(mbfuncother.o)
    0x20001ae0   0x00000100   Zero   RW         4582    .bss                BTBUS_Library.lib(mbrtu.o)
    0x20001be0   0x0000004a   Zero   RW         4681    .bss                BTBUS_Library.lib(portserial.o)
    0x20001c2a   0x00000002   PAD
    0x20001c2c   0x00000038   Zero   RW         4759    .bss                BTBUS_Library.lib(porttimer.o)
    0x20001c64   0x00000004   PAD
    0x20001c68   0x00000400   Zero   RW            1    STACK               startup_stm32l1xx_hd.o


==============================================================================

Image component sizes


      Code (inc. data)   RO Data    RW Data    ZI Data      Debug   Object Name

       406         20          0          0          0       1476   bsp_adc.o
      1052         58          0          0          0       2593   bsp_alarmdeal.o
       736         32          0          0          0       1282   bsp_bootstop.o
       278         10          0          0          0       2367   bsp_class.o
       516         74          0          0          0       2169   bsp_datadeal.o
      2980        248         54          2          0       7756   bsp_datasampledeal.o
       158          6          0          0          0       1013   bsp_exti_key.o
      1742        158          0          0          0       7865   bsp_i2c.o
      1498        144          0          0          0       5697   bsp_init.o
     13988        328          0          0          0      19646   bsp_lcd.o
      1520         68          0          0          0       2470   bsp_powerdeal.o
      1350         48          0         72          0       5097   bsp_rtc.o
      2376        106          0          0          0       6222   bsp_serialdeal.o
       938         42          0          0          0       5067   bsp_spi_flash.o
      1034         58          0          0          0       5103   bsp_storagedata.o
       184         22          0          4          0      18547   bsp_systick.o
       118          0          0          0          0        925   bsp_timer.o
       238         12          0          0          0       1572   bsp_usart.o
         0          0          0          0          0       4232   core_cm3.o
      1100        112          0         12       2048      10887   freemodbus.o
         0          0        332         40       3892      10278   global.o
        24          0          0          0          0      12438   main.o
       140         22          0          0          0       1303   misc.o
        36          8        292          0       1024        796   startup_stm32l1xx_hd.o
       580         14          0          0          0       5904   stm32l1xx_adc.o
        32          6          0          0          0        480   stm32l1xx_dbgmcu.o
       460         18          0          0          0       3634   stm32l1xx_dma.o
       184         16          0          0          0       1748   stm32l1xx_exti.o
       228          0          0          0          0       2999   stm32l1xx_gpio.o
       224         16          0          0          0     214754   stm32l1xx_hal_msp.o
       652         96          0          0          0       5182   stm32l1xx_it.o
       234         36          0          0          0       4667   stm32l1xx_lcd.o
        12          6          0          0          0        431   stm32l1xx_pwr.o
       680         98          0         25          0       9410   stm32l1xx_rcc.o
        96          4          0          0          0       1513   stm32l1xx_rtc.o
       112          0          0          0          0       2790   stm32l1xx_spi.o
        64          4          0          0          0        560   stm32l1xx_syscfg.o
       184         20          0          0          0       3450   stm32l1xx_tim.o
       430          6          0          0          0       4689   stm32l1xx_usart.o
       372         30          0         29          0     282333   system_stm32l1xx.o

    ----------------------------------------------------------------------
     36994       1946        710        188       6964     681345   Object Totals
         0          0         32          0          0          0   (incl. Generated)
        38          0          0          4          0          0   (incl. Padding)

    ----------------------------------------------------------------------

      Code (inc. data)   RO Data    RW Data    ZI Data      Debug   Library Member Name

       652        174          0        184          0       7827   mb.o
        56          8        512          0          0       1904   mbcrc.o
       416          0          0          0          0       3526   mbfunccoils.o
       164          0          0          0          0       1464   mbfuncdisc.o
       132          0          0          0          0       1425   mbfunchistory.o
       512          0          0          0          0       4715   mbfuncholding.o
       132          0          0          0          0       1419   mbfuncinput.o
        40         10          0          2         32       1215   mbfuncother.o
       132          0          0          0          0       1430   mbfuncrealdata.o
       744         98          0         12        256       8553   mbrtu.o
       172          0          0          0          0       5258   mbutils.o
        80          4          0          0        512       3269   port.o
        76         24          0          2          0       4030   portevent.o
       588         44          0          0         74       6054   portserial.o
       186         34          0          4         56       3191   porttimer.o
       208         14          0          0          0     262727   stm32l1xx_hal_cortex.o
       476         38          0          0          0       1600   stm32l1xx_hal_gpio.o
       332         50         29          0          0       3185   stm32l1xx_hal_rcc.o
       608         22          0          0          0       5585   stm32l1xx_hal_tim.o
       856          6          0          0          0       3570   stm32l1xx_hal_uart.o
        92          0          0          0          0          0   __dczerorl2.o
         0          0          0          0          0          0   entry.o
         0          0          0          0          0          0   entry10a.o
         0          0          0          0          0          0   entry11a.o
         8          4          0          0          0          0   entry2.o
         4          0          0          0          0          0   entry5.o
         0          0          0          0          0          0   entry7b.o
         0          0          0          0          0          0   entry8b.o
         8          4          0          0          0          0   entry9a.o
        30          0          0          0          0          0   handlers.o
        36          8          0          0          0         68   init.o
         0          0          0          0          0          0   iusefp.o
        30          0          0          0          0         68   llshl.o
        36          0          0          0          0         68   llsshr.o
        32          0          0          0          0         68   llushr.o
        36          0          0          0          0         68   memcpya.o
        36          0          0          0          0        108   memseta.o
      1150         54          0          0          0        352   printf8.o
      2256         86          0          0          0        508   printfa.o
         0          0          0          4          0          0   stdout.o
        44          0          0          0          0         80   uidiv.o
        98          0          0          0          0         92   uldiv.o
        40          2          0          0          0         68   cdcmple.o
        40          2          0          0          0         68   cdrcmple.o
        20          0          0          0          0         68   cfcmple.o
        20          0          0          0          0         68   cfrcmple.o
        56          0          0          0          0         88   d2f.o
       334          0          0          0          0        148   dadd.o
       222          0          0          0          0        100   ddiv.o
       190          0          0          0          0        176   depilogue.o
        48          0          0          0          0         68   dfixul.o
       228          0          0          0          0         96   dmul.o
        38          0          0          0          0         68   f2d.o
       176          0          0          0          0        140   fadd.o
       128          0          0          0          0         88   fdiv.o
       108          0          0          0          0        168   fepilogue.o
        40          0          0          0          0         68   ffixui.o
        18          0          0          0          0         68   fflti.o
        10          0          0          0          0         68   ffltui.o
       108          0          0          0          0         76   fmul.o

    ----------------------------------------------------------------------
     12298        686        542        208        936     335119   Library Totals
        16          0          1          0          6          0   (incl. Padding)

    ----------------------------------------------------------------------

      Code (inc. data)   RO Data    RW Data    ZI Data      Debug   Library Name

      6562        526        541        204        930     331947   BTBUS_Library.lib
      3896        156          0          4          0       1480   mc_w.l
      1824          4          0          0          0       1692   mf_w.l

    ----------------------------------------------------------------------
     12298        686        542        208        936     335119   Library Totals

    ----------------------------------------------------------------------

==============================================================================


      Code (inc. data)   RO Data    RW Data    ZI Data      Debug   

     49292       2632       1252        396       7900     999252   Grand Totals
     49292       2632       1252        172       7900     999252   ELF Image Totals (compressed)
     49292       2632       1252        172          0          0   ROM Totals

==============================================================================

    Total RO  Size (Code + RO Data)                50544 (  49.36kB)
    Total RW  Size (RW Data + ZI Data)              8296 (   8.10kB)
    Total ROM Size (Code + RO Data + RW Data)      50716 (  49.53kB)

==============================================================================

